
mm.riscv:     file format elf64-littleriscv


Disassembly of section .text.init:

0000000080000000 <_start>:
    80000000:	4081                	li	ra,0
    80000002:	4101                	li	sp,0
    80000004:	4181                	li	gp,0
    80000006:	4201                	li	tp,0
    80000008:	4281                	li	t0,0
    8000000a:	4301                	li	t1,0
    8000000c:	4381                	li	t2,0
    8000000e:	4401                	li	s0,0
    80000010:	4481                	li	s1,0
    80000012:	4501                	li	a0,0
    80000014:	4581                	li	a1,0
    80000016:	4601                	li	a2,0
    80000018:	4681                	li	a3,0
    8000001a:	4701                	li	a4,0
    8000001c:	4781                	li	a5,0
    8000001e:	4801                	li	a6,0
    80000020:	4881                	li	a7,0
    80000022:	4901                	li	s2,0
    80000024:	4981                	li	s3,0
    80000026:	4a01                	li	s4,0
    80000028:	4a81                	li	s5,0
    8000002a:	4b01                	li	s6,0
    8000002c:	4b81                	li	s7,0
    8000002e:	4c01                	li	s8,0
    80000030:	4c81                	li	s9,0
    80000032:	4d01                	li	s10,0
    80000034:	4d81                	li	s11,0
    80000036:	4e01                	li	t3,0
    80000038:	4e81                	li	t4,0
    8000003a:	4f01                	li	t5,0
    8000003c:	4f81                	li	t6,0
    8000003e:	62f9                	lui	t0,0x1e
    80000040:	3002a073          	csrs	mstatus,t0
    80000044:	4285                	li	t0,1
    80000046:	02fe                	slli	t0,t0,0x1f
    80000048:	0002d863          	bgez	t0,80000058 <_start+0x58>
    8000004c:	4505                	li	a0,1
    8000004e:	00001297          	auipc	t0,0x1
    80000052:	faa2a923          	sw	a0,-78(t0) # 80001000 <tohost>
    80000056:	bfdd                	j	8000004c <_start+0x4c>
    80000058:	00000297          	auipc	t0,0x0
    8000005c:	09028293          	addi	t0,t0,144 # 800000e8 <_start+0xe8>
    80000060:	30529073          	csrw	mtvec,t0
    80000064:	00301073          	fscsr	zero
    80000068:	f0000053          	fmv.w.x	ft0,zero
    8000006c:	f00000d3          	fmv.w.x	ft1,zero
    80000070:	f0000153          	fmv.w.x	ft2,zero
    80000074:	f00001d3          	fmv.w.x	ft3,zero
    80000078:	f0000253          	fmv.w.x	ft4,zero
    8000007c:	f00002d3          	fmv.w.x	ft5,zero
    80000080:	f0000353          	fmv.w.x	ft6,zero
    80000084:	f00003d3          	fmv.w.x	ft7,zero
    80000088:	f0000453          	fmv.w.x	fs0,zero
    8000008c:	f00004d3          	fmv.w.x	fs1,zero
    80000090:	f0000553          	fmv.w.x	fa0,zero
    80000094:	f00005d3          	fmv.w.x	fa1,zero
    80000098:	f0000653          	fmv.w.x	fa2,zero
    8000009c:	f00006d3          	fmv.w.x	fa3,zero
    800000a0:	f0000753          	fmv.w.x	fa4,zero
    800000a4:	f00007d3          	fmv.w.x	fa5,zero
    800000a8:	f0000853          	fmv.w.x	fa6,zero
    800000ac:	f00008d3          	fmv.w.x	fa7,zero
    800000b0:	f0000953          	fmv.w.x	fs2,zero
    800000b4:	f00009d3          	fmv.w.x	fs3,zero
    800000b8:	f0000a53          	fmv.w.x	fs4,zero
    800000bc:	f0000ad3          	fmv.w.x	fs5,zero
    800000c0:	f0000b53          	fmv.w.x	fs6,zero
    800000c4:	f0000bd3          	fmv.w.x	fs7,zero
    800000c8:	f0000c53          	fmv.w.x	fs8,zero
    800000cc:	f0000cd3          	fmv.w.x	fs9,zero
    800000d0:	f0000d53          	fmv.w.x	fs10,zero
    800000d4:	f0000dd3          	fmv.w.x	fs11,zero
    800000d8:	f0000e53          	fmv.w.x	ft8,zero
    800000dc:	f0000ed3          	fmv.w.x	ft9,zero
    800000e0:	f0000f53          	fmv.w.x	ft10,zero
    800000e4:	f0000fd3          	fmv.w.x	ft11,zero
    800000e8:	00000297          	auipc	t0,0x0
    800000ec:	03828293          	addi	t0,t0,56 # 80000120 <trap_entry>
    800000f0:	30529073          	csrw	mtvec,t0
    800000f4:	00005197          	auipc	gp,0x5
    800000f8:	69418193          	addi	gp,gp,1684 # 80005788 <__global_pointer$>
    800000fc:	ab718213          	addi	tp,gp,-1353 # 8000523f <_end+0x3f>
    80000100:	fc027213          	andi	tp,tp,-64
    80000104:	f1402573          	csrr	a0,mhartid
    80000108:	4585                	li	a1,1
    8000010a:	00b57063          	bgeu	a0,a1,8000010a <_start+0x10a>
    8000010e:	00150113          	addi	sp,a0,1
    80000112:	0146                	slli	sp,sp,0x11
    80000114:	9112                	add	sp,sp,tp
    80000116:	01151613          	slli	a2,a0,0x11
    8000011a:	9232                	add	tp,tp,a2
    8000011c:	4c50406f          	j	80004de0 <_init>

0000000080000120 <trap_entry>:
    80000120:	716d                	addi	sp,sp,-272
    80000122:	e406                	sd	ra,8(sp)
    80000124:	e80a                	sd	sp,16(sp)
    80000126:	ec0e                	sd	gp,24(sp)
    80000128:	f012                	sd	tp,32(sp)
    8000012a:	f416                	sd	t0,40(sp)
    8000012c:	f81a                	sd	t1,48(sp)
    8000012e:	fc1e                	sd	t2,56(sp)
    80000130:	e0a2                	sd	s0,64(sp)
    80000132:	e4a6                	sd	s1,72(sp)
    80000134:	e8aa                	sd	a0,80(sp)
    80000136:	ecae                	sd	a1,88(sp)
    80000138:	f0b2                	sd	a2,96(sp)
    8000013a:	f4b6                	sd	a3,104(sp)
    8000013c:	f8ba                	sd	a4,112(sp)
    8000013e:	fcbe                	sd	a5,120(sp)
    80000140:	e142                	sd	a6,128(sp)
    80000142:	e546                	sd	a7,136(sp)
    80000144:	e94a                	sd	s2,144(sp)
    80000146:	ed4e                	sd	s3,152(sp)
    80000148:	f152                	sd	s4,160(sp)
    8000014a:	f556                	sd	s5,168(sp)
    8000014c:	f95a                	sd	s6,176(sp)
    8000014e:	fd5e                	sd	s7,184(sp)
    80000150:	e1e2                	sd	s8,192(sp)
    80000152:	e5e6                	sd	s9,200(sp)
    80000154:	e9ea                	sd	s10,208(sp)
    80000156:	edee                	sd	s11,216(sp)
    80000158:	f1f2                	sd	t3,224(sp)
    8000015a:	f5f6                	sd	t4,232(sp)
    8000015c:	f9fa                	sd	t5,240(sp)
    8000015e:	fdfe                	sd	t6,248(sp)
    80000160:	34202573          	csrr	a0,mcause
    80000164:	341025f3          	csrr	a1,mepc
    80000168:	860a                	mv	a2,sp
    8000016a:	2b9040ef          	jal	ra,80004c22 <handle_trap>
    8000016e:	34151073          	csrw	mepc,a0
    80000172:	6289                	lui	t0,0x2
    80000174:	8002829b          	addiw	t0,t0,-2048 # 1800 <buflen.1+0x1780>
    80000178:	3002a073          	csrs	mstatus,t0
    8000017c:	60a2                	ld	ra,8(sp)
    8000017e:	6142                	ld	sp,16(sp)
    80000180:	61e2                	ld	gp,24(sp)
    80000182:	7202                	ld	tp,32(sp)
    80000184:	72a2                	ld	t0,40(sp)
    80000186:	7342                	ld	t1,48(sp)
    80000188:	73e2                	ld	t2,56(sp)
    8000018a:	6406                	ld	s0,64(sp)
    8000018c:	64a6                	ld	s1,72(sp)
    8000018e:	6546                	ld	a0,80(sp)
    80000190:	65e6                	ld	a1,88(sp)
    80000192:	7606                	ld	a2,96(sp)
    80000194:	76a6                	ld	a3,104(sp)
    80000196:	7746                	ld	a4,112(sp)
    80000198:	77e6                	ld	a5,120(sp)
    8000019a:	680a                	ld	a6,128(sp)
    8000019c:	68aa                	ld	a7,136(sp)
    8000019e:	694a                	ld	s2,144(sp)
    800001a0:	69ea                	ld	s3,152(sp)
    800001a2:	7a0a                	ld	s4,160(sp)
    800001a4:	7aaa                	ld	s5,168(sp)
    800001a6:	7b4a                	ld	s6,176(sp)
    800001a8:	7bea                	ld	s7,184(sp)
    800001aa:	6c0e                	ld	s8,192(sp)
    800001ac:	6cae                	ld	s9,200(sp)
    800001ae:	6d4e                	ld	s10,208(sp)
    800001b0:	6dee                	ld	s11,216(sp)
    800001b2:	7e0e                	ld	t3,224(sp)
    800001b4:	7eae                	ld	t4,232(sp)
    800001b6:	7f4e                	ld	t5,240(sp)
    800001b8:	7fee                	ld	t6,248(sp)
    800001ba:	6151                	addi	sp,sp,272
    800001bc:	30200073          	mret
    800001c0:	0000                	unimp

Disassembly of section .text:

0000000080002000 <mm_naive>:
    80002000:	14050763          	beqz	a0,8000214e <mm_naive+0x14e>
    80002004:	7159                	addi	sp,sp,-112
    80002006:	ffc67293          	andi	t0,a2,-4
    8000200a:	e4d2                	sd	s4,72(sp)
    8000200c:	83be                	mv	t2,a5
    8000200e:	8a36                	mv	s4,a3
    80002010:	ffc28793          	addi	a5,t0,-4
    80002014:	00181313          	slli	t1,a6,0x1
    80002018:	ec6a                	sd	s10,24(sp)
    8000201a:	9342                	add	t1,t1,a6
    8000201c:	8d46                	mv	s10,a7
    8000201e:	e03e                	sd	a5,0(sp)
    80002020:	00361893          	slli	a7,a2,0x3
    80002024:	020a0793          	addi	a5,s4,32
    80002028:	f0a6                	sd	s1,96(sp)
    8000202a:	ecca                	sd	s2,88(sp)
    8000202c:	e8ce                	sd	s3,80(sp)
    8000202e:	e0d6                	sd	s5,64(sp)
    80002030:	fc5a                	sd	s6,56(sp)
    80002032:	f85e                	sd	s7,48(sp)
    80002034:	f462                	sd	s8,40(sp)
    80002036:	f066                	sd	s9,32(sp)
    80002038:	e86e                	sd	s11,16(sp)
    8000203a:	98b6                	add	a7,a7,a3
    8000203c:	f4a2                	sd	s0,104(sp)
    8000203e:	8caa                	mv	s9,a0
    80002040:	892e                	mv	s2,a1
    80002042:	89b2                	mv	s3,a2
    80002044:	8c3a                	mv	s8,a4
    80002046:	8ac2                	mv	s5,a6
    80002048:	00371d93          	slli	s11,a4,0x3
    8000204c:	00581e93          	slli	t4,a6,0x5
    80002050:	00381693          	slli	a3,a6,0x3
    80002054:	00481e13          	slli	t3,a6,0x4
    80002058:	030e                	slli	t1,t1,0x3
    8000205a:	4481                	li	s1,0
    8000205c:	4b81                	li	s7,0
    8000205e:	4b01                	li	s6,0
    80002060:	e43e                	sd	a5,8(sp)
    80002062:	0a090d63          	beqz	s2,8000211c <mm_naive+0x11c>
    80002066:	6782                	ld	a5,0(sp)
    80002068:	003b9f93          	slli	t6,s7,0x3
    8000206c:	00349413          	slli	s0,s1,0x3
    80002070:	00f48833          	add	a6,s1,a5
    80002074:	67a2                	ld	a5,8(sp)
    80002076:	080e                	slli	a6,a6,0x3
    80002078:	9fea                	add	t6,t6,s10
    8000207a:	9452                	add	s0,s0,s4
    8000207c:	983e                	add	a6,a6,a5
    8000207e:	4f01                	li	t5,0
    80002080:	000fb787          	fld	fa5,0(t6)
    80002084:	0c028163          	beqz	t0,80002146 <mm_naive+0x146>
    80002088:	f20006d3          	fmv.d.x	fa3,zero
    8000208c:	003f1713          	slli	a4,t5,0x3
    80002090:	971e                	add	a4,a4,t2
    80002092:	22d68653          	fmv.d	fa2,fa3
    80002096:	22d68753          	fmv.d	fa4,fa3
    8000209a:	87a2                	mv	a5,s0
    8000209c:	00d70533          	add	a0,a4,a3
    800020a0:	01c705b3          	add	a1,a4,t3
    800020a4:	00670633          	add	a2,a4,t1
    800020a8:	0007b287          	fld	ft5,0(a5)
    800020ac:	00073207          	fld	ft4,0(a4)
    800020b0:	0087b187          	fld	ft3,8(a5)
    800020b4:	0107b087          	fld	ft1,16(a5)
    800020b8:	2f88                	fld	fa0,24(a5)
    800020ba:	00053107          	fld	ft2,0(a0)
    800020be:	0005b007          	fld	ft0,0(a1)
    800020c2:	220c                	fld	fa1,0(a2)
    800020c4:	02078793          	addi	a5,a5,32
    800020c8:	7a42f7c3          	fmadd.d	fa5,ft5,ft4,fa5
    800020cc:	7221f743          	fmadd.d	fa4,ft3,ft2,fa4
    800020d0:	6200f643          	fmadd.d	fa2,ft1,ft0,fa2
    800020d4:	6ab576c3          	fmadd.d	fa3,fa0,fa1,fa3
    800020d8:	9776                	add	a4,a4,t4
    800020da:	fcf811e3          	bne	a6,a5,8000209c <mm_naive+0x9c>
    800020de:	02c77753          	fadd.d	fa4,fa4,fa2
    800020e2:	8796                	mv	a5,t0
    800020e4:	02d77753          	fadd.d	fa4,fa4,fa3
    800020e8:	0337f263          	bgeu	a5,s3,8000210c <mm_naive+0x10c>
    800020ec:	02fa8733          	mul	a4,s5,a5
    800020f0:	97a6                	add	a5,a5,s1
    800020f2:	078e                	slli	a5,a5,0x3
    800020f4:	97d2                	add	a5,a5,s4
    800020f6:	977a                	add	a4,a4,t5
    800020f8:	070e                	slli	a4,a4,0x3
    800020fa:	971e                	add	a4,a4,t2
    800020fc:	2390                	fld	fa2,0(a5)
    800020fe:	2314                	fld	fa3,0(a4)
    80002100:	07a1                	addi	a5,a5,8
    80002102:	9736                	add	a4,a4,a3
    80002104:	7ad677c3          	fmadd.d	fa5,fa2,fa3,fa5
    80002108:	fef89ae3          	bne	a7,a5,800020fc <mm_naive+0xfc>
    8000210c:	02e7f7d3          	fadd.d	fa5,fa5,fa4
    80002110:	0f05                	addi	t5,t5,1
    80002112:	0fa1                	addi	t6,t6,8
    80002114:	feffbc27          	fsd	fa5,-8(t6)
    80002118:	f7e914e3          	bne	s2,t5,80002080 <mm_naive+0x80>
    8000211c:	77c6                	ld	a5,112(sp)
    8000211e:	0b05                	addi	s6,s6,1
    80002120:	94e2                	add	s1,s1,s8
    80002122:	9bbe                	add	s7,s7,a5
    80002124:	98ee                	add	a7,a7,s11
    80002126:	f36c9ee3          	bne	s9,s6,80002062 <mm_naive+0x62>
    8000212a:	7426                	ld	s0,104(sp)
    8000212c:	7486                	ld	s1,96(sp)
    8000212e:	6966                	ld	s2,88(sp)
    80002130:	69c6                	ld	s3,80(sp)
    80002132:	6a26                	ld	s4,72(sp)
    80002134:	6a86                	ld	s5,64(sp)
    80002136:	7b62                	ld	s6,56(sp)
    80002138:	7bc2                	ld	s7,48(sp)
    8000213a:	7c22                	ld	s8,40(sp)
    8000213c:	7c82                	ld	s9,32(sp)
    8000213e:	6d62                	ld	s10,24(sp)
    80002140:	6dc2                	ld	s11,16(sp)
    80002142:	6165                	addi	sp,sp,112
    80002144:	8082                	ret
    80002146:	f2000753          	fmv.d.x	fa4,zero
    8000214a:	4781                	li	a5,0
    8000214c:	bf71                	j	800020e8 <mm_naive+0xe8>
    8000214e:	8082                	ret

0000000080002150 <mm_cb>:
    80002150:	d8010113          	addi	sp,sp,-640
    80002154:	26813823          	sd	s0,624(sp)
    80002158:	26913423          	sd	s1,616(sp)
    8000215c:	0500                	addi	s0,sp,640
    8000215e:	26113c23          	sd	ra,632(sp)
    80002162:	27213023          	sd	s2,608(sp)
    80002166:	25313c23          	sd	s3,600(sp)
    8000216a:	25413823          	sd	s4,592(sp)
    8000216e:	25513423          	sd	s5,584(sp)
    80002172:	25613023          	sd	s6,576(sp)
    80002176:	23713c23          	sd	s7,568(sp)
    8000217a:	23813823          	sd	s8,560(sp)
    8000217e:	23913423          	sd	s9,552(sp)
    80002182:	23a13023          	sd	s10,544(sp)
    80002186:	21b13c23          	sd	s11,536(sp)
    8000218a:	20813427          	fsd	fs0,520(sp)
    8000218e:	20913027          	fsd	fs1,512(sp)
    80002192:	bfca                	fsd	fs2,504(sp)
    80002194:	bbce                	fsd	fs3,496(sp)
    80002196:	b7d2                	fsd	fs4,488(sp)
    80002198:	b3d6                	fsd	fs5,480(sp)
    8000219a:	afda                	fsd	fs6,472(sp)
    8000219c:	abde                	fsd	fs7,464(sp)
    8000219e:	a7e2                	fsd	fs8,456(sp)
    800021a0:	a3e6                	fsd	fs9,448(sp)
    800021a2:	bf6a                	fsd	fs10,440(sp)
    800021a4:	bb6e                	fsd	fs11,432(sp)
    800021a6:	8f32                	mv	t5,a2
    800021a8:	f0c43823          	sd	a2,-240(s0)
    800021ac:	4665                	li	a2,25
    800021ae:	02c5d4b3          	divu	s1,a1,a2
    800021b2:	4361                	li	t1,24
    800021b4:	f0e43c23          	sd	a4,-232(s0)
    800021b8:	8eba                	mv	t4,a4
    800021ba:	e6a43023          	sd	a0,-416(s0)
    800021be:	f2b43023          	sd	a1,-224(s0)
    800021c2:	e0d43823          	sd	a3,-496(s0)
    800021c6:	6609                	lui	a2,0x2
    800021c8:	167d                	addi	a2,a2,-1 # 1fff <buflen.1+0x1f7f>
    800021ca:	75f9                	lui	a1,0xffffe
    800021cc:	026f5733          	divu	a4,t5,t1
    800021d0:	ee943c23          	sd	s1,-264(s0)
    800021d4:	e4f43c23          	sd	a5,-424(s0)
    800021d8:	00149793          	slli	a5,s1,0x1
    800021dc:	97a6                	add	a5,a5,s1
    800021de:	078e                	slli	a5,a5,0x3
    800021e0:	eb143c23          	sd	a7,-328(s0)
    800021e4:	f3043423          	sd	a6,-216(s0)
    800021e8:	00978833          	add	a6,a5,s1
    800021ec:	ef043023          	sd	a6,-288(s0)
    800021f0:	02655333          	divu	t1,a0,t1
    800021f4:	00171893          	slli	a7,a4,0x1
    800021f8:	00e887b3          	add	a5,a7,a4
    800021fc:	00379493          	slli	s1,a5,0x3
    80002200:	eae43023          	sd	a4,-352(s0)
    80002204:	f0943023          	sd	s1,-256(s0)
    80002208:	00131793          	slli	a5,t1,0x1
    8000220c:	979a                	add	a5,a5,t1
    8000220e:	00379513          	slli	a0,a5,0x3
    80002212:	029507b3          	mul	a5,a0,s1
    80002216:	f0a43423          	sd	a0,-248(s0)
    8000221a:	40078793          	addi	a5,a5,1024
    8000221e:	078e                	slli	a5,a5,0x3
    80002220:	40f10133          	sub	sp,sp,a5
    80002224:	081c                	addi	a5,sp,16
    80002226:	97b2                	add	a5,a5,a2
    80002228:	8fed                	and	a5,a5,a1
    8000222a:	02980733          	mul	a4,a6,s1
    8000222e:	e4f43023          	sd	a5,-448(s0)
    80002232:	030507b3          	mul	a5,a0,a6
    80002236:	40070713          	addi	a4,a4,1024
    8000223a:	070e                	slli	a4,a4,0x3
    8000223c:	40e10133          	sub	sp,sp,a4
    80002240:	0818                	addi	a4,sp,16
    80002242:	9732                	add	a4,a4,a2
    80002244:	8f6d                	and	a4,a4,a1
    80002246:	e2e43c23          	sd	a4,-456(s0)
    8000224a:	40078793          	addi	a5,a5,1024
    8000224e:	078e                	slli	a5,a5,0x3
    80002250:	40f10133          	sub	sp,sp,a5
    80002254:	081c                	addi	a5,sp,16
    80002256:	97b2                	add	a5,a5,a2
    80002258:	8fed                	and	a5,a5,a1
    8000225a:	ecf43823          	sd	a5,-304(s0)
    8000225e:	e119                	bnez	a0,80002264 <mm_cb+0x114>
    80002260:	4f00106f          	j	80003750 <mm_cb+0x1600>
    80002264:	001e9513          	slli	a0,t4,0x1
    80002268:	87f6                	mv	a5,t4
    8000226a:	9eaa                	add	t4,t4,a0
    8000226c:	0e9a                	slli	t4,t4,0x6
    8000226e:	8e36                	mv	t3,a3
    80002270:	00379b93          	slli	s7,a5,0x3
    80002274:	4801                	li	a6,0
    80002276:	42e1                	li	t0,24
    80002278:	24000393          	li	t2,576
    8000227c:	ccad                	beqz	s1,800022f6 <mm_cb+0x1a6>
    8000227e:	025855b3          	divu	a1,a6,t0
    80002282:	ea043783          	ld	a5,-352(s0)
    80002286:	8f72                	mv	t5,t3
    80002288:	4301                	li	t1,0
    8000228a:	02f585b3          	mul	a1,a1,a5
    8000228e:	0c0f0f13          	addi	t5,t5,192
    80002292:	86fa                	mv	a3,t5
    80002294:	4f81                	li	t6,0
    80002296:	025357b3          	divu	a5,t1,t0
    8000229a:	97ae                	add	a5,a5,a1
    8000229c:	00379613          	slli	a2,a5,0x3
    800022a0:	963e                	add	a2,a2,a5
    800022a2:	e4043783          	ld	a5,-448(s0)
    800022a6:	0626                	slli	a2,a2,0x9
    800022a8:	963e                	add	a2,a2,a5
    800022aa:	f4068793          	addi	a5,a3,-192
    800022ae:	8732                	mv	a4,a2
    800022b0:	0007b087          	fld	ft1,0(a5)
    800022b4:	0087b007          	fld	ft0,8(a5)
    800022b8:	2b88                	fld	fa0,16(a5)
    800022ba:	2f8c                	fld	fa1,24(a5)
    800022bc:	3390                	fld	fa2,32(a5)
    800022be:	3794                	fld	fa3,40(a5)
    800022c0:	3b98                	fld	fa4,48(a5)
    800022c2:	3f9c                	fld	fa5,56(a5)
    800022c4:	00173027          	fsd	ft1,0(a4)
    800022c8:	00073427          	fsd	ft0,8(a4)
    800022cc:	ab08                	fsd	fa0,16(a4)
    800022ce:	af0c                	fsd	fa1,24(a4)
    800022d0:	b310                	fsd	fa2,32(a4)
    800022d2:	b714                	fsd	fa3,40(a4)
    800022d4:	bb18                	fsd	fa4,48(a4)
    800022d6:	bf1c                	fsd	fa5,56(a4)
    800022d8:	04078793          	addi	a5,a5,64
    800022dc:	04070713          	addi	a4,a4,64
    800022e0:	fcf698e3          	bne	a3,a5,800022b0 <mm_cb+0x160>
    800022e4:	0fe1                	addi	t6,t6,24
    800022e6:	0c060613          	addi	a2,a2,192
    800022ea:	96de                	add	a3,a3,s7
    800022ec:	fa7f9fe3          	bne	t6,t2,800022aa <mm_cb+0x15a>
    800022f0:	0361                	addi	t1,t1,24
    800022f2:	f8936ee3          	bltu	t1,s1,8000228e <mm_cb+0x13e>
    800022f6:	f0843783          	ld	a5,-248(s0)
    800022fa:	0861                	addi	a6,a6,24
    800022fc:	9e76                	add	t3,t3,t4
    800022fe:	f6f86fe3          	bltu	a6,a5,8000227c <mm_cb+0x12c>
    80002302:	f0043783          	ld	a5,-256(s0)
    80002306:	e399                	bnez	a5,8000230c <mm_cb+0x1bc>
    80002308:	3710106f          	j	80003e78 <mm_cb+0x1d28>
    8000230c:	f2843783          	ld	a5,-216(s0)
    80002310:	e5843e83          	ld	t4,-424(s0)
    80002314:	6e05                	lui	t3,0x1
    80002316:	00179593          	slli	a1,a5,0x1
    8000231a:	00f58f33          	add	t5,a1,a5
    8000231e:	0f1a                	slli	t5,t5,0x6
    80002320:	00379d13          	slli	s10,a5,0x3
    80002324:	4801                	li	a6,0
    80002326:	43e1                	li	t2,24
    80002328:	4965                	li	s2,25
    8000232a:	2c0e0e13          	addi	t3,t3,704 # 12c0 <buflen.1+0x1240>
    8000232e:	25800493          	li	s1,600
    80002332:	f2043783          	ld	a5,-224(s0)
    80002336:	08f3f263          	bgeu	t2,a5,800023ba <mm_cb+0x26a>
    8000233a:	02785533          	divu	a0,a6,t2
    8000233e:	ef843783          	ld	a5,-264(s0)
    80002342:	8ff6                	mv	t6,t4
    80002344:	4301                	li	t1,0
    80002346:	02f50533          	mul	a0,a0,a5
    8000234a:	e3843783          	ld	a5,-456(s0)
    8000234e:	0c0f8693          	addi	a3,t6,192
    80002352:	4281                	li	t0,0
    80002354:	03235633          	divu	a2,t1,s2
    80002358:	962a                	add	a2,a2,a0
    8000235a:	03c60633          	mul	a2,a2,t3
    8000235e:	963e                	add	a2,a2,a5
    80002360:	f4068793          	addi	a5,a3,-192
    80002364:	8732                	mv	a4,a2
    80002366:	0007b087          	fld	ft1,0(a5)
    8000236a:	0087b007          	fld	ft0,8(a5)
    8000236e:	2b88                	fld	fa0,16(a5)
    80002370:	2f8c                	fld	fa1,24(a5)
    80002372:	3390                	fld	fa2,32(a5)
    80002374:	3794                	fld	fa3,40(a5)
    80002376:	3b98                	fld	fa4,48(a5)
    80002378:	3f9c                	fld	fa5,56(a5)
    8000237a:	00173027          	fsd	ft1,0(a4)
    8000237e:	00073427          	fsd	ft0,8(a4)
    80002382:	ab08                	fsd	fa0,16(a4)
    80002384:	af0c                	fsd	fa1,24(a4)
    80002386:	b310                	fsd	fa2,32(a4)
    80002388:	b714                	fsd	fa3,40(a4)
    8000238a:	bb18                	fsd	fa4,48(a4)
    8000238c:	bf1c                	fsd	fa5,56(a4)
    8000238e:	04078793          	addi	a5,a5,64
    80002392:	04070713          	addi	a4,a4,64
    80002396:	fcf698e3          	bne	a3,a5,80002366 <mm_cb+0x216>
    8000239a:	229c                	fld	fa5,0(a3)
    8000239c:	02e5                	addi	t0,t0,25
    8000239e:	0c860613          	addi	a2,a2,200
    800023a2:	fef63c27          	fsd	fa5,-8(a2)
    800023a6:	96ea                	add	a3,a3,s10
    800023a8:	fa929ce3          	bne	t0,s1,80002360 <mm_cb+0x210>
    800023ac:	ee043783          	ld	a5,-288(s0)
    800023b0:	0365                	addi	t1,t1,25
    800023b2:	0c8f8f93          	addi	t6,t6,200
    800023b6:	f8f36ae3          	bltu	t1,a5,8000234a <mm_cb+0x1fa>
    800023ba:	f0043783          	ld	a5,-256(s0)
    800023be:	0861                	addi	a6,a6,24
    800023c0:	9efa                	add	t4,t4,t5
    800023c2:	f6f868e3          	bltu	a6,a5,80002332 <mm_cb+0x1e2>
    800023c6:	f1843783          	ld	a5,-232(s0)
    800023ca:	00179513          	slli	a0,a5,0x1
    800023ce:	00379b93          	slli	s7,a5,0x3
    800023d2:	f0843783          	ld	a5,-248(s0)
    800023d6:	e399                	bnez	a5,800023dc <mm_cb+0x28c>
    800023d8:	3820106f          	j	8000375a <mm_cb+0x160a>
    800023dc:	601c                	ld	a5,0(s0)
    800023de:	6018                	ld	a4,0(s0)
    800023e0:	eb843f03          	ld	t5,-328(s0)
    800023e4:	0786                	slli	a5,a5,0x1
    800023e6:	e0f43023          	sd	a5,-512(s0)
    800023ea:	97ba                	add	a5,a5,a4
    800023ec:	079a                	slli	a5,a5,0x6
    800023ee:	eaf43823          	sd	a5,-336(s0)
    800023f2:	6e85                	lui	t4,0x1
    800023f4:	00371793          	slli	a5,a4,0x3
    800023f8:	eef43423          	sd	a5,-280(s0)
    800023fc:	4301                	li	t1,0
    800023fe:	43e1                	li	t2,24
    80002400:	4965                	li	s2,25
    80002402:	2c0e8e93          	addi	t4,t4,704 # 12c0 <buflen.1+0x1240>
    80002406:	25800493          	li	s1,600
    8000240a:	f2043783          	ld	a5,-224(s0)
    8000240e:	08f3f363          	bgeu	t2,a5,80002494 <mm_cb+0x344>
    80002412:	02735833          	divu	a6,t1,t2
    80002416:	ef843783          	ld	a5,-264(s0)
    8000241a:	8ffa                	mv	t6,t5
    8000241c:	4e01                	li	t3,0
    8000241e:	02f80833          	mul	a6,a6,a5
    80002422:	ed043783          	ld	a5,-304(s0)
    80002426:	0c0f8693          	addi	a3,t6,192
    8000242a:	4281                	li	t0,0
    8000242c:	032e5633          	divu	a2,t3,s2
    80002430:	9642                	add	a2,a2,a6
    80002432:	03d60633          	mul	a2,a2,t4
    80002436:	963e                	add	a2,a2,a5
    80002438:	f4068793          	addi	a5,a3,-192
    8000243c:	8732                	mv	a4,a2
    8000243e:	0007b087          	fld	ft1,0(a5)
    80002442:	0087b007          	fld	ft0,8(a5)
    80002446:	2b88                	fld	fa0,16(a5)
    80002448:	2f8c                	fld	fa1,24(a5)
    8000244a:	3390                	fld	fa2,32(a5)
    8000244c:	3794                	fld	fa3,40(a5)
    8000244e:	3b98                	fld	fa4,48(a5)
    80002450:	3f9c                	fld	fa5,56(a5)
    80002452:	00173027          	fsd	ft1,0(a4)
    80002456:	00073427          	fsd	ft0,8(a4)
    8000245a:	ab08                	fsd	fa0,16(a4)
    8000245c:	af0c                	fsd	fa1,24(a4)
    8000245e:	b310                	fsd	fa2,32(a4)
    80002460:	b714                	fsd	fa3,40(a4)
    80002462:	bb18                	fsd	fa4,48(a4)
    80002464:	bf1c                	fsd	fa5,56(a4)
    80002466:	04078793          	addi	a5,a5,64
    8000246a:	04070713          	addi	a4,a4,64
    8000246e:	fcf698e3          	bne	a3,a5,8000243e <mm_cb+0x2ee>
    80002472:	229c                	fld	fa5,0(a3)
    80002474:	ee843783          	ld	a5,-280(s0)
    80002478:	02e5                	addi	t0,t0,25
    8000247a:	a27c                	fsd	fa5,192(a2)
    8000247c:	0c860613          	addi	a2,a2,200
    80002480:	96be                	add	a3,a3,a5
    80002482:	fa929be3          	bne	t0,s1,80002438 <mm_cb+0x2e8>
    80002486:	ee043783          	ld	a5,-288(s0)
    8000248a:	0e65                	addi	t3,t3,25
    8000248c:	0c8f8f93          	addi	t6,t6,200
    80002490:	f8fe69e3          	bltu	t3,a5,80002422 <mm_cb+0x2d2>
    80002494:	eb043783          	ld	a5,-336(s0)
    80002498:	0361                	addi	t1,t1,24
    8000249a:	9f3e                	add	t5,t5,a5
    8000249c:	f0843783          	ld	a5,-248(s0)
    800024a0:	f6f365e3          	bltu	t1,a5,8000240a <mm_cb+0x2ba>
    800024a4:	ea043603          	ld	a2,-352(s0)
    800024a8:	f2843483          	ld	s1,-216(s0)
    800024ac:	f1043703          	ld	a4,-240(s0)
    800024b0:	98b2                	add	a7,a7,a2
    800024b2:	f1843603          	ld	a2,-232(s0)
    800024b6:	47e1                	li	a5,24
    800024b8:	02f77733          	remu	a4,a4,a5
    800024bc:	00249793          	slli	a5,s1,0x2
    800024c0:	9532                	add	a0,a0,a2
    800024c2:	97a6                	add	a5,a5,s1
    800024c4:	00379c13          	slli	s8,a5,0x3
    800024c8:	00651793          	slli	a5,a0,0x6
    800024cc:	e4f43823          	sd	a5,-432(s0)
    800024d0:	e1043783          	ld	a5,-496(s0)
    800024d4:	00689813          	slli	a6,a7,0x6
    800024d8:	95a6                	add	a1,a1,s1
    800024da:	97c2                	add	a5,a5,a6
    800024dc:	eef43823          	sd	a5,-272(s0)
    800024e0:	00561793          	slli	a5,a2,0x5
    800024e4:	e0f43c23          	sd	a5,-488(s0)
    800024e8:	00659793          	slli	a5,a1,0x6
    800024ec:	dcf43023          	sd	a5,-576(s0)
    800024f0:	601c                	ld	a5,0(s0)
    800024f2:	f2043603          	ld	a2,-224(s0)
    800024f6:	4695                	li	a3,5
    800024f8:	0796                	slli	a5,a5,0x5
    800024fa:	dcf43c23          	sd	a5,-552(s0)
    800024fe:	77fd                	lui	a5,0xfffff
    80002500:	d4078a93          	addi	s5,a5,-704 # ffffffffffffed40 <__global_pointer$+0xffffffff7fff95b8>
    80002504:	47e5                	li	a5,25
    80002506:	00459b13          	slli	s6,a1,0x4
    8000250a:	00359a13          	slli	s4,a1,0x3
    8000250e:	00549c93          	slli	s9,s1,0x5
    80002512:	00449893          	slli	a7,s1,0x4
    80002516:	89ea                	mv	s3,s10
    80002518:	dd043423          	sd	a6,-568(s0)
    8000251c:	8d5e                	mv	s10,s7
    8000251e:	e8043823          	sd	zero,-368(s0)
    80002522:	8bd2                	mv	s7,s4
    80002524:	8a5a                	mv	s4,s6
    80002526:	02f67533          	remu	a0,a2,a5
    8000252a:	00371793          	slli	a5,a4,0x3
    8000252e:	def43823          	sd	a5,-528(s0)
    80002532:	4799                	li	a5,6
    80002534:	e2e43423          	sd	a4,-472(s0)
    80002538:	02f757b3          	divu	a5,a4,a5
    8000253c:	e2a43823          	sd	a0,-464(s0)
    80002540:	02d55633          	divu	a2,a0,a3
    80002544:	00179713          	slli	a4,a5,0x1
    80002548:	973e                	add	a4,a4,a5
    8000254a:	0712                	slli	a4,a4,0x4
    8000254c:	dce43823          	sd	a4,-560(s0)
    80002550:	f0043703          	ld	a4,-256(s0)
    80002554:	02970733          	mul	a4,a4,s1
    80002558:	00261593          	slli	a1,a2,0x2
    8000255c:	962e                	add	a2,a2,a1
    8000255e:	ef843583          	ld	a1,-264(s0)
    80002562:	e8c43023          	sd	a2,-384(s0)
    80002566:	060e                	slli	a2,a2,0x3
    80002568:	e0c43423          	sd	a2,-504(s0)
    8000256c:	0c800613          	li	a2,200
    80002570:	02c58633          	mul	a2,a1,a2
    80002574:	e5843583          	ld	a1,-424(s0)
    80002578:	070e                	slli	a4,a4,0x3
    8000257a:	972e                	add	a4,a4,a1
    8000257c:	e2e43023          	sd	a4,-480(s0)
    80002580:	02d57733          	remu	a4,a0,a3
    80002584:	02fb07b3          	mul	a5,s6,a5
    80002588:	dee43423          	sd	a4,-536(s0)
    8000258c:	eb843703          	ld	a4,-328(s0)
    80002590:	8b62                	mv	s6,s8
    80002592:	8c66                	mv	s8,s9
    80002594:	9732                	add	a4,a4,a2
    80002596:	ece43c23          	sd	a4,-296(s0)
    8000259a:	00c58733          	add	a4,a1,a2
    8000259e:	dee43023          	sd	a4,-544(s0)
    800025a2:	8cc6                	mv	s9,a7
    800025a4:	e8f43423          	sd	a5,-376(s0)
    800025a8:	f2043703          	ld	a4,-224(s0)
    800025ac:	47e1                	li	a5,24
    800025ae:	00e7e463          	bltu	a5,a4,800025b6 <mm_cb+0x466>
    800025b2:	0300106f          	j	800035e2 <mm_cb+0x1492>
    800025b6:	e9043703          	ld	a4,-368(s0)
    800025ba:	ef043683          	ld	a3,-272(s0)
    800025be:	e7443c23          	sd	s4,-392(s0)
    800025c2:	02f757b3          	divu	a5,a4,a5
    800025c6:	e5043703          	ld	a4,-432(s0)
    800025ca:	ec043423          	sd	zero,-312(s0)
    800025ce:	8a4e                	mv	s4,s3
    800025d0:	9736                	add	a4,a4,a3
    800025d2:	e4e43423          	sd	a4,-440(s0)
    800025d6:	e2043703          	ld	a4,-480(s0)
    800025da:	eae43423          	sd	a4,-344(s0)
    800025de:	ea043703          	ld	a4,-352(s0)
    800025e2:	02e78733          	mul	a4,a5,a4
    800025e6:	e6e43823          	sd	a4,-400(s0)
    800025ea:	ef843703          	ld	a4,-264(s0)
    800025ee:	02e787b3          	mul	a5,a5,a4
    800025f2:	e8f43c23          	sd	a5,-360(s0)
    800025f6:	87e2                	mv	a5,s8
    800025f8:	8c66                	mv	s8,s9
    800025fa:	8cbe                	mv	s9,a5
    800025fc:	f0043783          	ld	a5,-256(s0)
    80002600:	46078963          	beqz	a5,80002a72 <mm_cb+0x922>
    80002604:	ec843783          	ld	a5,-312(s0)
    80002608:	4765                	li	a4,25
    8000260a:	ec043023          	sd	zero,-320(s0)
    8000260e:	02e7d7b3          	divu	a5,a5,a4
    80002612:	e9843703          	ld	a4,-360(s0)
    80002616:	db843823          	sd	s8,-592(s0)
    8000261a:	db743423          	sd	s7,-600(s0)
    8000261e:	db643023          	sd	s6,-608(s0)
    80002622:	d9443c23          	sd	s4,-616(s0)
    80002626:	e6f43423          	sd	a5,-408(s0)
    8000262a:	97ba                	add	a5,a5,a4
    8000262c:	6705                	lui	a4,0x1
    8000262e:	2c070693          	addi	a3,a4,704 # 12c0 <buflen.1+0x1240>
    80002632:	02d787b3          	mul	a5,a5,a3
    80002636:	ed043683          	ld	a3,-304(s0)
    8000263a:	2c070713          	addi	a4,a4,704
    8000263e:	97b6                	add	a5,a5,a3
    80002640:	973e                	add	a4,a4,a5
    80002642:	0c878793          	addi	a5,a5,200
    80002646:	dee43c23          	sd	a4,-520(s0)
    8000264a:	daf43c23          	sd	a5,-584(s0)
    8000264e:	ec043703          	ld	a4,-320(s0)
    80002652:	47e1                	li	a5,24
    80002654:	db843c03          	ld	s8,-584(s0)
    80002658:	02f757b3          	divu	a5,a4,a5
    8000265c:	ef843703          	ld	a4,-264(s0)
    80002660:	4b81                	li	s7,0
    80002662:	02e78933          	mul	s2,a5,a4
    80002666:	e7043703          	ld	a4,-400(s0)
    8000266a:	97ba                	add	a5,a5,a4
    8000266c:	00379713          	slli	a4,a5,0x3
    80002670:	97ba                	add	a5,a5,a4
    80002672:	e4043703          	ld	a4,-448(s0)
    80002676:	07a6                	slli	a5,a5,0x9
    80002678:	00f70a33          	add	s4,a4,a5
    8000267c:	e6843783          	ld	a5,-408(s0)
    80002680:	8dd2                	mv	s11,s4
    80002682:	993e                	add	s2,s2,a5
    80002684:	6785                	lui	a5,0x1
    80002686:	2c078713          	addi	a4,a5,704 # 12c0 <buflen.1+0x1240>
    8000268a:	02e90933          	mul	s2,s2,a4
    8000268e:	e3843703          	ld	a4,-456(s0)
    80002692:	993a                	add	s2,s2,a4
    80002694:	2c078713          	addi	a4,a5,704
    80002698:	38878793          	addi	a5,a5,904
    8000269c:	0c890993          	addi	s3,s2,200
    800026a0:	00e904b3          	add	s1,s2,a4
    800026a4:	00f90b33          	add	s6,s2,a5
    800026a8:	f38c0793          	addi	a5,s8,-200
    800026ac:	86a6                	mv	a3,s1
    800026ae:	0007ba87          	fld	fs5,0(a5)
    800026b2:	0087ba07          	fld	fs4,8(a5)
    800026b6:	0107b987          	fld	fs3,16(a5)
    800026ba:	0187b907          	fld	fs2,24(a5)
    800026be:	3394                	fld	fa3,32(a5)
    800026c0:	27e4                	fld	fs1,200(a5)
    800026c2:	2be0                	fld	fs0,208(a5)
    800026c4:	0d87bb07          	fld	fs6,216(a5)
    800026c8:	0e07bf87          	fld	ft11,224(a5)
    800026cc:	37f8                	fld	fa4,232(a5)
    800026ce:	1907bf07          	fld	ft10,400(a5)
    800026d2:	1987be87          	fld	ft9,408(a5)
    800026d6:	1a07be07          	fld	ft8,416(a5)
    800026da:	1a87b887          	fld	fa7,424(a5)
    800026de:	1b07b787          	fld	fa5,432(a5)
    800026e2:	2587b107          	fld	ft2,600(a5)
    800026e6:	2607b187          	fld	ft3,608(a5)
    800026ea:	2687b287          	fld	ft5,616(a5)
    800026ee:	2707b207          	fld	ft4,624(a5)
    800026f2:	2787b087          	fld	ft1,632(a5)
    800026f6:	01568733          	add	a4,a3,s5
    800026fa:	866e                	mv	a2,s11
    800026fc:	24063607          	fld	fa2,576(a2)
    80002700:	00063007          	fld	ft0,0(a2)
    80002704:	2268                	fld	fa0,192(a2)
    80002706:	18063587          	fld	fa1,384(a2)
    8000270a:	00873c07          	fld	fs8,8(a4)
    8000270e:	01073b87          	fld	fs7,16(a4)
    80002712:	01873807          	fld	fa6,24(a4)
    80002716:	02073387          	fld	ft7,32(a4)
    8000271a:	00073307          	fld	ft6,0(a4)
    8000271e:	1b8671c3          	fmadd.d	ft3,fa2,fs8,ft3
    80002722:	2b7672c3          	fmadd.d	ft5,fa2,fs7,ft5
    80002726:	23067243          	fmadd.d	ft4,fa2,fa6,ft4
    8000272a:	0a7670c3          	fmadd.d	ft1,fa2,ft7,ft1
    8000272e:	aa607ac3          	fmadd.d	fs5,ft0,ft6,fs5
    80002732:	a3807a43          	fmadd.d	fs4,ft0,fs8,fs4
    80002736:	9b7079c3          	fmadd.d	fs3,ft0,fs7,fs3
    8000273a:	93007943          	fmadd.d	fs2,ft0,fa6,fs2
    8000273e:	4a6574c3          	fmadd.d	fs1,fa0,ft6,fs1
    80002742:	6a707043          	fmadd.d	ft0,ft0,ft7,fa3
    80002746:	43857443          	fmadd.d	fs0,fa0,fs8,fs0
    8000274a:	b3757b43          	fmadd.d	fs6,fa0,fs7,fs6
    8000274e:	fb057fc3          	fmadd.d	ft11,fa0,fa6,ft11
    80002752:	f265ff43          	fmadd.d	ft10,fa1,ft6,ft10
    80002756:	72757543          	fmadd.d	fa0,fa0,ft7,fa4
    8000275a:	12667343          	fmadd.d	ft6,fa2,ft6,ft2
    8000275e:	eb85fec3          	fmadd.d	ft9,fa1,fs8,ft9
    80002762:	e375fe43          	fmadd.d	ft8,fa1,fs7,ft8
    80002766:	8b05f8c3          	fmadd.d	fa7,fa1,fa6,fa7
    8000276a:	7a75f5c3          	fmadd.d	fa1,fa1,ft7,fa5
    8000276e:	2678                	fld	fa4,200(a2)
    80002770:	18863787          	fld	fa5,392(a2)
    80002774:	2610                	fld	fa2,8(a2)
    80002776:	24863107          	fld	ft2,584(a2)
    8000277a:	0d073c07          	fld	fs8,208(a4)
    8000277e:	0e873387          	fld	ft7,232(a4)
    80002782:	0c873c87          	fld	fs9,200(a4)
    80002786:	0d873b87          	fld	fs7,216(a4)
    8000278a:	0e073807          	fld	fa6,224(a4)
    8000278e:	52777543          	fmadd.d	fa0,fa4,ft7,fa0
    80002792:	ab967ac3          	fmadd.d	fs5,fa2,fs9,fs5
    80002796:	a3867a43          	fmadd.d	fs4,fa2,fs8,fs4
    8000279a:	9b7679c3          	fmadd.d	fs3,fa2,fs7,fs3
    8000279e:	93067943          	fmadd.d	fs2,fa2,fa6,fs2
    800027a2:	4b9774c3          	fmadd.d	fs1,fa4,fs9,fs1
    800027a6:	02767643          	fmadd.d	fa2,fa2,ft7,ft0
    800027aa:	43877443          	fmadd.d	fs0,fa4,fs8,fs0
    800027ae:	b3777b43          	fmadd.d	fs6,fa4,fs7,fs6
    800027b2:	fb077fc3          	fmadd.d	ft11,fa4,fa6,ft11
    800027b6:	f397ff43          	fmadd.d	ft10,fa5,fs9,ft10
    800027ba:	eb87fec3          	fmadd.d	ft9,fa5,fs8,ft9
    800027be:	33917cc3          	fmadd.d	fs9,ft2,fs9,ft6
    800027c2:	e377fe43          	fmadd.d	ft8,fa5,fs7,ft8
    800027c6:	1b817343          	fmadd.d	ft6,ft2,fs8,ft3
    800027ca:	8b07f8c3          	fmadd.d	fa7,fa5,fa6,fa7
    800027ce:	5a77f5c3          	fmadd.d	fa1,fa5,ft7,fa1
    800027d2:	2b717bc3          	fmadd.d	fs7,ft2,fs7,ft5
    800027d6:	23017843          	fmadd.d	fa6,ft2,fa6,ft4
    800027da:	0a717143          	fmadd.d	ft2,ft2,ft7,ft1
    800027de:	19063787          	fld	fa5,400(a2)
    800027e2:	01063207          	fld	ft4,16(a2)
    800027e6:	0d063187          	fld	ft3,208(a2)
    800027ea:	25063087          	fld	ft1,592(a2)
    800027ee:	1a873387          	fld	ft7,424(a4)
    800027f2:	1b073287          	fld	ft5,432(a4)
    800027f6:	19073007          	fld	ft0,400(a4)
    800027fa:	19873c07          	fld	fs8,408(a4)
    800027fe:	1a073d07          	fld	fs10,416(a4)
    80002802:	8270f843          	fmadd.d	fa6,ft1,ft7,fa6
    80002806:	aa027ac3          	fmadd.d	fs5,ft4,ft0,fs5
    8000280a:	a3827a43          	fmadd.d	fs4,ft4,fs8,fs4
    8000280e:	9ba279c3          	fmadd.d	fs3,ft4,fs10,fs3
    80002812:	92727943          	fmadd.d	fs2,ft4,ft7,fs2
    80002816:	4a01f4c3          	fmadd.d	fs1,ft3,ft0,fs1
    8000281a:	62527243          	fmadd.d	ft4,ft4,ft5,fa2
    8000281e:	4381f443          	fmadd.d	fs0,ft3,fs8,fs0
    80002822:	b3a1fb43          	fmadd.d	fs6,ft3,fs10,fs6
    80002826:	fa71ffc3          	fmadd.d	ft11,ft3,ft7,ft11
    8000282a:	f207ff43          	fmadd.d	ft10,fa5,ft0,ft10
    8000282e:	5251f1c3          	fmadd.d	ft3,ft3,ft5,fa0
    80002832:	ca00f043          	fmadd.d	ft0,ft1,ft0,fs9
    80002836:	eb87fec3          	fmadd.d	ft9,fa5,fs8,ft9
    8000283a:	e3a7fe43          	fmadd.d	ft8,fa5,fs10,ft8
    8000283e:	3380fc43          	fmadd.d	fs8,ft1,fs8,ft6
    80002842:	8a77f8c3          	fmadd.d	fa7,fa5,ft7,fa7
    80002846:	5a57f643          	fmadd.d	fa2,fa5,ft5,fa1
    8000284a:	bba0fbc3          	fmadd.d	fs7,ft1,fs10,fs7
    8000284e:	1250f0c3          	fmadd.d	ft1,ft1,ft5,ft2
    80002852:	2e08                	fld	fa0,24(a2)
    80002854:	26873107          	fld	ft2,616(a4)
    80002858:	27073307          	fld	ft6,624(a4)
    8000285c:	25873d87          	fld	fs11,600(a4)
    80002860:	26073287          	fld	ft5,608(a4)
    80002864:	27873d07          	fld	fs10,632(a4)
    80002868:	19863787          	fld	fa5,408(a2)
    8000286c:	25863c87          	fld	fs9,600(a2)
    80002870:	0d863387          	fld	ft7,216(a2)
    80002874:	abb57ac3          	fmadd.d	fs5,fa0,fs11,fs5
    80002878:	a2557a43          	fmadd.d	fs4,fa0,ft5,fs4
    8000287c:	9a2579c3          	fmadd.d	fs3,fa0,ft2,fs3
    80002880:	92657943          	fmadd.d	fs2,fa0,ft6,fs2
    80002884:	4bb3f4c3          	fmadd.d	fs1,ft7,fs11,fs1
    80002888:	4253f443          	fmadd.d	fs0,ft7,ft5,fs0
    8000288c:	b223fb43          	fmadd.d	fs6,ft7,ft2,fs6
    80002890:	fa63ffc3          	fmadd.d	ft11,ft7,ft6,ft11
    80002894:	f3b7ff43          	fmadd.d	ft10,fa5,fs11,ft10
    80002898:	ea57fec3          	fmadd.d	ft9,fa5,ft5,ft9
    8000289c:	e227fe43          	fmadd.d	ft8,fa5,ft2,ft8
    800028a0:	c25cf2c3          	fmadd.d	ft5,fs9,ft5,fs8
    800028a4:	8a67f8c3          	fmadd.d	fa7,fa5,ft6,fa7
    800028a8:	03bcfdc3          	fmadd.d	fs11,fs9,fs11,ft0
    800028ac:	ba2cfbc3          	fmadd.d	fs7,fs9,ft2,fs7
    800028b0:	0bacf0c3          	fmadd.d	ft1,fs9,fs10,ft1
    800028b4:	23a57543          	fmadd.d	fa0,fa0,fs10,ft4
    800028b8:	1ba3f3c3          	fmadd.d	ft7,ft7,fs10,ft3
    800028bc:	826cf243          	fmadd.d	ft4,fs9,ft6,fa6
    800028c0:	63a7f643          	fmadd.d	fa2,fa5,fs10,fa2
    800028c4:	3214                	fld	fa3,32(a2)
    800028c6:	3278                	fld	fa4,224(a2)
    800028c8:	1a063787          	fld	fa5,416(a2)
    800028cc:	26063807          	fld	fa6,608(a2)
    800028d0:	32073307          	fld	ft6,800(a4)
    800028d4:	33073107          	fld	ft2,816(a4)
    800028d8:	33873007          	fld	ft0,824(a4)
    800028dc:	32873c87          	fld	fs9,808(a4)
    800028e0:	34073c07          	fld	fs8,832(a4)
    800028e4:	aa66fac3          	fmadd.d	fs5,fa3,ft6,fs5
    800028e8:	a396fa43          	fmadd.d	fs4,fa3,fs9,fs4
    800028ec:	9a26f9c3          	fmadd.d	fs3,fa3,ft2,fs3
    800028f0:	9206f943          	fmadd.d	fs2,fa3,ft0,fs2
    800028f4:	4a6774c3          	fmadd.d	fs1,fa4,ft6,fs1
    800028f8:	43977443          	fmadd.d	fs0,fa4,fs9,fs0
    800028fc:	b2277b43          	fmadd.d	fs6,fa4,ft2,fs6
    80002900:	fa077fc3          	fmadd.d	ft11,fa4,ft0,ft11
    80002904:	f267ff43          	fmadd.d	ft10,fa5,ft6,ft10
    80002908:	eb97fec3          	fmadd.d	ft9,fa5,fs9,ft9
    8000290c:	e227fe43          	fmadd.d	ft8,fa5,ft2,ft8
    80002910:	8a07f8c3          	fmadd.d	fa7,fa5,ft0,fa7
    80002914:	da687dc3          	fmadd.d	fs11,fa6,ft6,fs11
    80002918:	2b987cc3          	fmadd.d	fs9,fa6,fs9,ft5
    8000291c:	ba287bc3          	fmadd.d	fs7,fa6,ft2,fs7
    80002920:	22087243          	fmadd.d	ft4,fa6,ft0,ft4
    80002924:	5386f543          	fmadd.d	fa0,fa3,fs8,fa0
    80002928:	3b8773c3          	fmadd.d	ft7,fa4,fs8,ft7
    8000292c:	6387f643          	fmadd.d	fa2,fa5,fs8,fa2
    80002930:	0b887843          	fmadd.d	fa6,fa6,fs8,ft1
    80002934:	3614                	fld	fa3,40(a2)
    80002936:	3678                	fld	fa4,232(a2)
    80002938:	1a863787          	fld	fa5,424(a2)
    8000293c:	26863307          	fld	ft6,616(a2)
    80002940:	3e873107          	fld	ft2,1000(a4)
    80002944:	3f073187          	fld	ft3,1008(a4)
    80002948:	3f873287          	fld	ft5,1016(a4)
    8000294c:	40073007          	fld	ft0,1024(a4)
    80002950:	40873087          	fld	ft1,1032(a4)
    80002954:	4b070713          	addi	a4,a4,1200
    80002958:	aa26fac3          	fmadd.d	fs5,fa3,ft2,fs5
    8000295c:	a236fa43          	fmadd.d	fs4,fa3,ft3,fs4
    80002960:	9a56f9c3          	fmadd.d	fs3,fa3,ft5,fs3
    80002964:	4a2774c3          	fmadd.d	fs1,fa4,ft2,fs1
    80002968:	42377443          	fmadd.d	fs0,fa4,ft3,fs0
    8000296c:	b2577b43          	fmadd.d	fs6,fa4,ft5,fs6
    80002970:	f227ff43          	fmadd.d	ft10,fa5,ft2,ft10
    80002974:	ea37fec3          	fmadd.d	ft9,fa5,ft3,ft9
    80002978:	e257fe43          	fmadd.d	ft8,fa5,ft5,ft8
    8000297c:	9206f943          	fmadd.d	fs2,fa3,ft0,fs2
    80002980:	fa077fc3          	fmadd.d	ft11,fa4,ft0,ft11
    80002984:	5216f6c3          	fmadd.d	fa3,fa3,ft1,fa0
    80002988:	3a177743          	fmadd.d	fa4,fa4,ft1,ft7
    8000298c:	8a07f8c3          	fmadd.d	fa7,fa5,ft0,fa7
    80002990:	da237143          	fmadd.d	ft2,ft6,ft2,fs11
    80002994:	6217f7c3          	fmadd.d	fa5,fa5,ft1,fa2
    80002998:	ca3371c3          	fmadd.d	ft3,ft6,ft3,fs9
    8000299c:	ba5372c3          	fmadd.d	ft5,ft6,ft5,fs7
    800029a0:	22037243          	fmadd.d	ft4,ft6,ft0,ft4
    800029a4:	821370c3          	fmadd.d	ft1,ft6,ft1,fa6
    800029a8:	03060613          	addi	a2,a2,48
    800029ac:	d4d718e3          	bne	a4,a3,800026fc <mm_cb+0x5ac>
    800029b0:	0157b027          	fsd	fs5,0(a5)
    800029b4:	0147b427          	fsd	fs4,8(a5)
    800029b8:	0137b827          	fsd	fs3,16(a5)
    800029bc:	0127bc27          	fsd	fs2,24(a5)
    800029c0:	b394                	fsd	fa3,32(a5)
    800029c2:	a7e4                	fsd	fs1,200(a5)
    800029c4:	abe0                	fsd	fs0,208(a5)
    800029c6:	0d67bc27          	fsd	fs6,216(a5)
    800029ca:	0ff7b027          	fsd	ft11,224(a5)
    800029ce:	b7f8                	fsd	fa4,232(a5)
    800029d0:	19e7b827          	fsd	ft10,400(a5)
    800029d4:	19d7bc27          	fsd	ft9,408(a5)
    800029d8:	1bc7b027          	fsd	ft8,416(a5)
    800029dc:	1b17b427          	fsd	fa7,424(a5)
    800029e0:	1af7b827          	fsd	fa5,432(a5)
    800029e4:	2427bc27          	fsd	ft2,600(a5)
    800029e8:	2637b027          	fsd	ft3,608(a5)
    800029ec:	2657b427          	fsd	ft5,616(a5)
    800029f0:	2647b827          	fsd	ft4,624(a5)
    800029f4:	2617bc27          	fsd	ft1,632(a5)
    800029f8:	02870693          	addi	a3,a4,40
    800029fc:	02878793          	addi	a5,a5,40
    80002a00:	cadb17e3          	bne	s6,a3,800026ae <mm_cb+0x55e>
    80002a04:	47e5                	li	a5,25
    80002a06:	88e2                	mv	a7,s8
    80002a08:	86ee                	mv	a3,s11
    80002a0a:	e03e                	sd	a5,0(sp)
    80002a0c:	4865                	li	a6,25
    80002a0e:	87ce                	mv	a5,s3
    80002a10:	4761                	li	a4,24
    80002a12:	4661                	li	a2,24
    80002a14:	4581                	li	a1,0
    80002a16:	4511                	li	a0,4
    80002a18:	de8ff0ef          	jal	ra,80002000 <mm_naive>
    80002a1c:	064b8b93          	addi	s7,s7,100
    80002a20:	25800793          	li	a5,600
    80002a24:	300d8d93          	addi	s11,s11,768
    80002a28:	320c0c13          	addi	s8,s8,800
    80002a2c:	c6fb9ee3          	bne	s7,a5,800026a8 <mm_cb+0x558>
    80002a30:	ec043483          	ld	s1,-320(s0)
    80002a34:	df843883          	ld	a7,-520(s0)
    80002a38:	6685                	lui	a3,0x1
    80002a3a:	47e5                	li	a5,25
    80002a3c:	20068693          	addi	a3,a3,512 # 1200 <buflen.1+0x1180>
    80002a40:	e03e                	sd	a5,0(sp)
    80002a42:	4865                	li	a6,25
    80002a44:	87ca                	mv	a5,s2
    80002a46:	4761                	li	a4,24
    80002a48:	96d2                	add	a3,a3,s4
    80002a4a:	4661                	li	a2,24
    80002a4c:	45e5                	li	a1,25
    80002a4e:	4501                	li	a0,0
    80002a50:	04e1                	addi	s1,s1,24
    80002a52:	ec943023          	sd	s1,-320(s0)
    80002a56:	daaff0ef          	jal	ra,80002000 <mm_naive>
    80002a5a:	f0043783          	ld	a5,-256(s0)
    80002a5e:	bef4e8e3          	bltu	s1,a5,8000264e <mm_cb+0x4fe>
    80002a62:	db043c03          	ld	s8,-592(s0)
    80002a66:	da843b83          	ld	s7,-600(s0)
    80002a6a:	da043b03          	ld	s6,-608(s0)
    80002a6e:	d9843a03          	ld	s4,-616(s0)
    80002a72:	ea843783          	ld	a5,-344(s0)
    80002a76:	f0043703          	ld	a4,-256(s0)
    80002a7a:	0c878313          	addi	t1,a5,200
    80002a7e:	f1043783          	ld	a5,-240(s0)
    80002a82:	60f76f63          	bltu	a4,a5,800030a0 <mm_cb+0xf50>
    80002a86:	ec843783          	ld	a5,-312(s0)
    80002a8a:	ee043703          	ld	a4,-288(s0)
    80002a8e:	ea643423          	sd	t1,-344(s0)
    80002a92:	07e5                	addi	a5,a5,25
    80002a94:	ecf43423          	sd	a5,-312(s0)
    80002a98:	b6e7e2e3          	bltu	a5,a4,800025fc <mm_cb+0x4ac>
    80002a9c:	87e6                	mv	a5,s9
    80002a9e:	ee043703          	ld	a4,-288(s0)
    80002aa2:	8ce2                	mv	s9,s8
    80002aa4:	8c3e                	mv	s8,a5
    80002aa6:	f2043783          	ld	a5,-224(s0)
    80002aaa:	89d2                	mv	s3,s4
    80002aac:	e7843a03          	ld	s4,-392(s0)
    80002ab0:	34f776e3          	bgeu	a4,a5,800035fc <mm_cb+0x14ac>
    80002ab4:	f1043783          	ld	a5,-240(s0)
    80002ab8:	340782e3          	beqz	a5,800035fc <mm_cb+0x14ac>
    80002abc:	ed843703          	ld	a4,-296(s0)
    80002ac0:	eb043783          	ld	a5,-336(s0)
    80002ac4:	e8043c23          	sd	zero,-360(s0)
    80002ac8:	97ba                	add	a5,a5,a4
    80002aca:	eaf43423          	sd	a5,-344(s0)
    80002ace:	dc843703          	ld	a4,-568(s0)
    80002ad2:	ef043783          	ld	a5,-272(s0)
    80002ad6:	8f99                	sub	a5,a5,a4
    80002ad8:	e6f43823          	sd	a5,-400(s0)
    80002adc:	de043783          	ld	a5,-544(s0)
    80002ae0:	ecf43423          	sd	a5,-312(s0)
    80002ae4:	e9843703          	ld	a4,-360(s0)
    80002ae8:	f1043783          	ld	a5,-240(s0)
    80002aec:	8f99                	sub	a5,a5,a4
    80002aee:	eef43823          	sd	a5,-272(s0)
    80002af2:	4761                	li	a4,24
    80002af4:	00f77563          	bgeu	a4,a5,80002afe <mm_cb+0x9ae>
    80002af8:	47e1                	li	a5,24
    80002afa:	eef43823          	sd	a5,-272(s0)
    80002afe:	ef043703          	ld	a4,-272(s0)
    80002b02:	4799                	li	a5,6
    80002b04:	ec843683          	ld	a3,-312(s0)
    80002b08:	02f757b3          	divu	a5,a4,a5
    80002b0c:	00371913          	slli	s2,a4,0x3
    80002b10:	e0843703          	ld	a4,-504(s0)
    80002b14:	9736                	add	a4,a4,a3
    80002b16:	ed843683          	ld	a3,-296(s0)
    80002b1a:	dee43c23          	sd	a4,-520(s0)
    80002b1e:	e7043703          	ld	a4,-400(s0)
    80002b22:	ecd43023          	sd	a3,-320(s0)
    80002b26:	4699                	li	a3,6
    80002b28:	993a                	add	s2,s2,a4
    80002b2a:	8dba                	mv	s11,a4
    80002b2c:	e6d43423          	sd	a3,-408(s0)
    80002b30:	00179493          	slli	s1,a5,0x1
    80002b34:	94be                	add	s1,s1,a5
    80002b36:	02fa07b3          	mul	a5,s4,a5
    80002b3a:	0492                	slli	s1,s1,0x4
    80002b3c:	94ba                	add	s1,s1,a4
    80002b3e:	e6f43c23          	sd	a5,-392(s0)
    80002b42:	e3043783          	ld	a5,-464(s0)
    80002b46:	4711                	li	a4,4
    80002b48:	4af77563          	bgeu	a4,a5,80002ff2 <mm_cb+0xea2>
    80002b4c:	ee843783          	ld	a5,-280(s0)
    80002b50:	ec043883          	ld	a7,-320(s0)
    80002b54:	ec843383          	ld	t2,-312(s0)
    80002b58:	4f01                	li	t5,0
    80002b5a:	01178833          	add	a6,a5,a7
    80002b5e:	01078533          	add	a0,a5,a6
    80002b62:	00a78333          	add	t1,a5,a0
    80002b66:	0008be87          	fld	ft9,0(a7)
    80002b6a:	0088bf87          	fld	ft11,8(a7)
    80002b6e:	0108bf07          	fld	ft10,16(a7)
    80002b72:	0188be07          	fld	ft8,24(a7)
    80002b76:	0208b507          	fld	fa0,32(a7)
    80002b7a:	00083887          	fld	fa7,0(a6)
    80002b7e:	00883807          	fld	fa6,8(a6)
    80002b82:	01083387          	fld	ft7,16(a6)
    80002b86:	01883307          	fld	ft6,24(a6)
    80002b8a:	02083607          	fld	fa2,32(a6)
    80002b8e:	00053107          	fld	ft2,0(a0)
    80002b92:	00853287          	fld	ft5,8(a0)
    80002b96:	01053207          	fld	ft4,16(a0)
    80002b9a:	01853187          	fld	ft3,24(a0)
    80002b9e:	3118                	fld	fa4,32(a0)
    80002ba0:	00033587          	fld	fa1,0(t1)
    80002ba4:	00833087          	fld	ft1,8(t1)
    80002ba8:	01033007          	fld	ft0,16(t1)
    80002bac:	01833687          	fld	fa3,24(t1)
    80002bb0:	02033787          	fld	fa5,32(t1)
    80002bb4:	879e                	mv	a5,t2
    80002bb6:	329dfe63          	bgeu	s11,s1,80002ef2 <mm_cb+0xda2>
    80002bba:	221084d3          	fmv.d	fs1,ft1
    80002bbe:	22d689d3          	fmv.d	fs3,fa3
    80002bc2:	22f78953          	fmv.d	fs2,fa5
    80002bc6:	22e706d3          	fmv.d	fa3,fa4
    80002bca:	01bd0633          	add	a2,s10,s11
    80002bce:	23ce0bd3          	fmv.d	fs7,ft8
    80002bd2:	22630c53          	fmv.d	fs8,ft6
    80002bd6:	22420b53          	fmv.d	fs6,ft4
    80002bda:	22318dd3          	fmv.d	fs11,ft3
    80002bde:	23de80d3          	fmv.d	ft1,ft9
    80002be2:	23ff8753          	fmv.d	fa4,ft11
    80002be6:	23ef07d3          	fmv.d	fa5,ft10
    80002bea:	00cd06b3          	add	a3,s10,a2
    80002bee:	00dd05b3          	add	a1,s10,a3
    80002bf2:	876e                	mv	a4,s11
    80002bf4:	00073e07          	fld	ft8,0(a4)
    80002bf8:	00063307          	fld	ft6,0(a2)
    80002bfc:	0107be87          	fld	ft9,16(a5)
    80002c00:	3380                	fld	fs0,32(a5)
    80002c02:	0007b207          	fld	ft4,0(a5)
    80002c06:	0087b187          	fld	ft3,8(a5)
    80002c0a:	0187bc87          	fld	fs9,24(a5)
    80002c0e:	0a4e70c3          	fmadd.d	ft1,ft8,ft4,ft1
    80002c12:	723e7743          	fmadd.d	fa4,ft8,ft3,fa4
    80002c16:	bb9e7fc3          	fmadd.d	ft11,ft8,fs9,fs7
    80002c1a:	7bde77c3          	fmadd.d	fa5,ft8,ft9,fa5
    80002c1e:	528e7e43          	fmadd.d	ft8,ft8,fs0,fa0
    80002c22:	8a437543          	fmadd.d	fa0,ft6,ft4,fa7
    80002c26:	0006bf07          	fld	ft10,0(a3)
    80002c2a:	0005ba87          	fld	fs5,0(a1) # ffffffffffffe000 <__global_pointer$+0xffffffff7fff8878>
    80002c2e:	82337d43          	fmadd.d	fs10,ft6,ft3,fa6
    80002c32:	124f7bc3          	fmadd.d	fs7,ft10,ft4,ft2
    80002c36:	3bd37a43          	fmadd.d	fs4,ft6,ft9,ft7
    80002c3a:	6a8f7143          	fmadd.d	ft2,ft10,fs0,fa3
    80002c3e:	c3937843          	fmadd.d	fa6,ft6,fs9,fs8
    80002c42:	2a3f78c3          	fmadd.d	fa7,ft10,ft3,ft5
    80002c46:	62837343          	fmadd.d	ft6,ft6,fs0,fa2
    80002c4a:	5a4af243          	fmadd.d	ft4,fs5,ft4,fa1
    80002c4e:	db9f7643          	fmadd.d	fa2,ft10,fs9,fs11
    80002c52:	4a3af1c3          	fmadd.d	ft3,fs5,ft3,fs1
    80002c56:	03daf043          	fmadd.d	ft0,fs5,ft9,ft0
    80002c5a:	9b9afcc3          	fmadd.d	fs9,fs5,fs9,fs3
    80002c5e:	b3df7b43          	fmadd.d	fs6,ft10,ft9,fs6
    80002c62:	928afac3          	fmadd.d	fs5,fs5,fs0,fs2
    80002c66:	e2050ed3          	fmv.x.d	t4,fa0
    80002c6a:	01378e33          	add	t3,a5,s3
    80002c6e:	2708                	fld	fa0,8(a4)
    80002c70:	260c                	fld	fa1,8(a2)
    80002c72:	0086b287          	fld	ft5,8(a3)
    80002c76:	2594                	fld	fa3,8(a1)
    80002c78:	008e3987          	fld	fs3,8(t3)
    80002c7c:	010e3907          	fld	fs2,16(t3)
    80002c80:	018e3487          	fld	fs1,24(t3)
    80002c84:	020e3407          	fld	fs0,32(t3)
    80002c88:	000e3e87          	fld	ft9,0(t3)
    80002c8c:	f20e83d3          	fmv.d.x	ft7,t4
    80002c90:	d335fd43          	fmadd.d	fs10,fa1,fs3,fs10
    80002c94:	a325fa43          	fmadd.d	fs4,fa1,fs2,fs4
    80002c98:	3bd5ff43          	fmadd.d	ft10,fa1,ft9,ft7
    80002c9c:	8295f843          	fmadd.d	fa6,fa1,fs1,fa6
    80002ca0:	0bd570c3          	fmadd.d	ft1,fa0,ft9,ft1
    80002ca4:	3285f5c3          	fmadd.d	fa1,fa1,fs0,ft6
    80002ca8:	73357743          	fmadd.d	fa4,fa0,fs3,fa4
    80002cac:	bbd2f343          	fmadd.d	ft6,ft5,ft9,fs7
    80002cb0:	7b2577c3          	fmadd.d	fa5,fa0,fs2,fa5
    80002cb4:	23d6fec3          	fmadd.d	ft9,fa3,ft9,ft4
    80002cb8:	fa957fc3          	fmadd.d	ft11,fa0,fs1,ft11
    80002cbc:	8b32f8c3          	fmadd.d	fa7,ft5,fs3,fa7
    80002cc0:	e2857543          	fmadd.d	fa0,fa0,fs0,ft8
    80002cc4:	b322fb43          	fmadd.d	fs6,ft5,fs2,fs6
    80002cc8:	1b36fe43          	fmadd.d	ft8,fa3,fs3,ft3
    80002ccc:	6292f643          	fmadd.d	fa2,ft5,fs1,fa2
    80002cd0:	1282f2c3          	fmadd.d	ft5,ft5,fs0,ft2
    80002cd4:	0326f143          	fmadd.d	ft2,fa3,fs2,ft0
    80002cd8:	ca96f043          	fmadd.d	ft0,fa3,fs1,fs9
    80002cdc:	aa86f6c3          	fmadd.d	fa3,fa3,fs0,fs5
    80002ce0:	00fc8e33          	add	t3,s9,a5
    80002ce4:	0105b987          	fld	fs3,16(a1)
    80002ce8:	01073907          	fld	fs2,16(a4)
    80002cec:	2a04                	fld	fs1,16(a2)
    80002cee:	2a80                	fld	fs0,16(a3)
    80002cf0:	020e3d87          	fld	fs11,32(t3)
    80002cf4:	000e3a87          	fld	fs5,0(t3)
    80002cf8:	008e3b87          	fld	fs7,8(t3)
    80002cfc:	010e3c07          	fld	fs8,16(t3)
    80002d00:	018e3c87          	fld	fs9,24(t3)
    80002d04:	f354ff43          	fmadd.d	ft10,fs1,fs5,ft10
    80002d08:	a384f3c3          	fmadd.d	ft7,fs1,fs8,fs4
    80002d0c:	fb997fc3          	fmadd.d	ft11,fs2,fs9,ft11
    80002d10:	8394f1c3          	fmadd.d	ft3,fs1,fs9,fa6
    80002d14:	33547243          	fmadd.d	ft4,fs0,fs5,ft6
    80002d18:	8b7478c3          	fmadd.d	fa7,fs0,fs7,fa7
    80002d1c:	0b5970c3          	fmadd.d	ft1,fs2,fs5,ft1
    80002d20:	73797743          	fmadd.d	fa4,fs2,fs7,fa4
    80002d24:	eb59fac3          	fmadd.d	fs5,fs3,fs5,ft9
    80002d28:	7b8977c3          	fmadd.d	fa5,fs2,fs8,fa5
    80002d2c:	b3847b43          	fmadd.d	fs6,fs0,fs8,fs6
    80002d30:	53b97943          	fmadd.d	fs2,fs2,fs11,fa0
    80002d34:	1389fc43          	fmadd.d	fs8,fs3,fs8,ft2
    80002d38:	d374f543          	fmadd.d	fa0,fs1,fs7,fs10
    80002d3c:	63947643          	fmadd.d	fa2,fs0,fs9,fa2
    80002d40:	5bb4f4c3          	fmadd.d	fs1,fs1,fs11,fa1
    80002d44:	2bb47443          	fmadd.d	fs0,fs0,fs11,ft5
    80002d48:	6bb9f5c3          	fmadd.d	fa1,fs3,fs11,fa3
    80002d4c:	e379fbc3          	fmadd.d	fs7,fs3,fs7,ft8
    80002d50:	0399fcc3          	fmadd.d	fs9,fs3,fs9,ft0
    80002d54:	01778e33          	add	t3,a5,s7
    80002d58:	01873287          	fld	ft5,24(a4)
    80002d5c:	018e3107          	fld	ft2,24(t3)
    80002d60:	000e3d07          	fld	fs10,0(t3)
    80002d64:	008e3a07          	fld	fs4,8(t3)
    80002d68:	010e3987          	fld	fs3,16(t3)
    80002d6c:	020e3007          	fld	ft0,32(t3)
    80002d70:	2e94                	fld	fa3,24(a3)
    80002d72:	0185bd87          	fld	fs11,24(a1)
    80002d76:	01863307          	fld	ft6,24(a2)
    80002d7a:	fa22fec3          	fmadd.d	ft9,ft5,ft2,ft11
    80002d7e:	6226f643          	fmadd.d	fa2,fa3,ft2,fa2
    80002d82:	f3a37e43          	fmadd.d	ft8,ft6,fs10,ft10
    80002d86:	9202ffc3          	fmadd.d	ft11,ft5,ft0,fs2
    80002d8a:	53437843          	fmadd.d	fa6,ft6,fs4,fa0
    80002d8e:	ca2df943          	fmadd.d	fs2,fs11,ft2,fs9
    80002d92:	4206f543          	fmadd.d	fa0,fa3,ft0,fs0
    80002d96:	5a0dfcc3          	fmadd.d	fs9,fs11,ft0,fa1
    80002d9a:	0ba2f0c3          	fmadd.d	ft1,ft5,fs10,ft1
    80002d9e:	7342f743          	fmadd.d	fa4,ft5,fs4,fa4
    80002da2:	7b32f7c3          	fmadd.d	fa5,ft5,fs3,fa5
    80002da6:	3b3373c3          	fmadd.d	ft7,ft6,fs3,ft7
    80002daa:	8b46f2c3          	fmadd.d	ft5,fa3,fs4,fa7
    80002dae:	1a2371c3          	fmadd.d	ft3,ft6,ft2,ft3
    80002db2:	bb4dfa43          	fmadd.d	fs4,fs11,fs4,fs7
    80002db6:	4a037343          	fmadd.d	ft6,ft6,ft0,fs1
    80002dba:	23a6f243          	fmadd.d	ft4,fa3,fs10,ft4
    80002dbe:	b336fb43          	fmadd.d	fs6,fa3,fs3,fs6
    80002dc2:	abadfd43          	fmadd.d	fs10,fs11,fs10,fs5
    80002dc6:	c33df9c3          	fmadd.d	fs3,fs11,fs3,fs8
    80002dca:	00fc0e33          	add	t3,s8,a5
    80002dce:	3294                	fld	fa3,32(a3)
    80002dd0:	0205bc07          	fld	fs8,32(a1)
    80002dd4:	02073007          	fld	ft0,32(a4)
    80002dd8:	320c                	fld	fa1,32(a2)
    80002dda:	000e3a87          	fld	fs5,0(t3)
    80002dde:	008e3487          	fld	fs1,8(t3)
    80002de2:	010e3407          	fld	fs0,16(t3)
    80002de6:	020e3107          	fld	ft2,32(t3)
    80002dea:	018e3f07          	fld	ft10,24(t3)
    80002dee:	e355f8c3          	fmadd.d	fa7,fa1,fs5,ft8
    80002df2:	0b5070c3          	fmadd.d	ft1,ft0,fs5,ft1
    80002df6:	ebe07bc3          	fmadd.d	fs7,ft0,ft10,ft9
    80002dfa:	63e6fdc3          	fmadd.d	fs11,fa3,ft10,fa2
    80002dfe:	5226fe43          	fmadd.d	ft8,fa3,ft2,fa0
    80002e02:	9a8c7ec3          	fmadd.d	ft9,fs8,fs0,fs3
    80002e06:	72907743          	fmadd.d	fa4,ft0,fs1,fa4
    80002e0a:	7a8077c3          	fmadd.d	fa5,ft0,fs0,fa5
    80002e0e:	8295f843          	fmadd.d	fa6,fa1,fs1,fa6
    80002e12:	fa207043          	fmadd.d	ft0,ft0,ft2,ft11
    80002e16:	3a85f3c3          	fmadd.d	ft7,fa1,fs0,ft7
    80002e1a:	1be5f1c3          	fmadd.d	ft3,fa1,ft10,ft3
    80002e1e:	2356f243          	fmadd.d	ft4,fa3,fs5,ft4
    80002e22:	3225f5c3          	fmadd.d	fa1,fa1,ft2,ft6
    80002e26:	2a96f2c3          	fmadd.d	ft5,fa3,fs1,ft5
    80002e2a:	a29c7343          	fmadd.d	ft6,fs8,fs1,fs4
    80002e2e:	b286fb43          	fmadd.d	fs6,fa3,fs0,fs6
    80002e32:	d35c7d43          	fmadd.d	fs10,fs8,fs5,fs10
    80002e36:	93ec7f43          	fmadd.d	ft10,fs8,ft10,fs2
    80002e3a:	ca2c7cc3          	fmadd.d	fs9,fs8,ft2,fs9
    80002e3e:	01678e33          	add	t3,a5,s6
    80002e42:	3708                	fld	fa0,40(a4)
    80002e44:	3610                	fld	fa2,40(a2)
    80002e46:	3694                	fld	fa3,40(a3)
    80002e48:	0285ba87          	fld	fs5,40(a1)
    80002e4c:	010e3907          	fld	fs2,16(t3)
    80002e50:	000e3407          	fld	fs0,0(t3)
    80002e54:	008e3487          	fld	fs1,8(t3)
    80002e58:	018e3987          	fld	fs3,24(t3)
    80002e5c:	020e3a07          	fld	fs4,32(t3)
    80002e60:	03070713          	addi	a4,a4,48
    80002e64:	72957743          	fmadd.d	fa4,fa0,fs1,fa4
    80002e68:	7b2577c3          	fmadd.d	fa5,fa0,fs2,fa5
    80002e6c:	bb357bc3          	fmadd.d	fs7,fa0,fs3,fs7
    80002e70:	82967843          	fmadd.d	fa6,fa2,fs1,fa6
    80002e74:	3b2673c3          	fmadd.d	ft7,fa2,fs2,ft7
    80002e78:	1b367c43          	fmadd.d	fs8,fa2,fs3,ft3
    80002e7c:	2a96f2c3          	fmadd.d	ft5,fa3,fs1,ft5
    80002e80:	b326fb43          	fmadd.d	fs6,fa3,fs2,fs6
    80002e84:	db36fdc3          	fmadd.d	fs11,fa3,fs3,fs11
    80002e88:	0a8570c3          	fmadd.d	ft1,fa0,fs0,ft1
    80002e8c:	8a8678c3          	fmadd.d	fa7,fa2,fs0,fa7
    80002e90:	03457543          	fmadd.d	fa0,fa0,fs4,ft0
    80002e94:	5b467643          	fmadd.d	fa2,fa2,fs4,fa1
    80002e98:	2286f143          	fmadd.d	ft2,fa3,fs0,ft4
    80002e9c:	eb2af043          	fmadd.d	ft0,fs5,fs2,ft9
    80002ea0:	e346f6c3          	fmadd.d	fa3,fa3,fs4,ft8
    80002ea4:	d28af5c3          	fmadd.d	fa1,fs5,fs0,fs10
    80002ea8:	329af4c3          	fmadd.d	fs1,fs5,fs1,ft6
    80002eac:	f33af9c3          	fmadd.d	fs3,fs5,fs3,ft10
    80002eb0:	cb4af943          	fmadd.d	fs2,fs5,fs4,fs9
    80002eb4:	97d2                	add	a5,a5,s4
    80002eb6:	03060613          	addi	a2,a2,48
    80002eba:	03068693          	addi	a3,a3,48
    80002ebe:	03058593          	addi	a1,a1,48
    80002ec2:	d29769e3          	bltu	a4,s1,80002bf4 <mm_cb+0xaa4>
    80002ec6:	22108ed3          	fmv.d	ft9,ft1
    80002eca:	22e70fd3          	fmv.d	ft11,fa4
    80002ece:	22f78f53          	fmv.d	ft10,fa5
    80002ed2:	22d68753          	fmv.d	fa4,fa3
    80002ed6:	237b8e53          	fmv.d	ft8,fs7
    80002eda:	238c0353          	fmv.d	ft6,fs8
    80002ede:	236b0253          	fmv.d	ft4,fs6
    80002ee2:	23bd81d3          	fmv.d	ft3,fs11
    80002ee6:	229480d3          	fmv.d	ft1,fs1
    80002eea:	233986d3          	fmv.d	fa3,fs3
    80002eee:	232907d3          	fmv.d	fa5,fs2
    80002ef2:	e7843783          	ld	a5,-392(s0)
    80002ef6:	979e                	add	a5,a5,t2
    80002ef8:	0924f563          	bgeu	s1,s2,80002f82 <mm_cb+0xe32>
    80002efc:	8726                	mv	a4,s1
    80002efe:	01a705b3          	add	a1,a4,s10
    80002f02:	01a58633          	add	a2,a1,s10
    80002f06:	01a606b3          	add	a3,a2,s10
    80002f0a:	00073987          	fld	fs3,0(a4)
    80002f0e:	0007bc07          	fld	fs8,0(a5)
    80002f12:	0087bb87          	fld	fs7,8(a5)
    80002f16:	0107bb07          	fld	fs6,16(a5)
    80002f1a:	0187ba87          	fld	fs5,24(a5)
    80002f1e:	0207ba07          	fld	fs4,32(a5)
    80002f22:	0005b907          	fld	fs2,0(a1)
    80002f26:	2204                	fld	fs1,0(a2)
    80002f28:	2280                	fld	fs0,0(a3)
    80002f2a:	0721                	addi	a4,a4,8
    80002f2c:	eb89fec3          	fmadd.d	ft9,fs3,fs8,ft9
    80002f30:	fb79ffc3          	fmadd.d	ft11,fs3,fs7,ft11
    80002f34:	f369ff43          	fmadd.d	ft10,fs3,fs6,ft10
    80002f38:	e359fe43          	fmadd.d	ft8,fs3,fs5,ft8
    80002f3c:	5349f543          	fmadd.d	fa0,fs3,fs4,fa0
    80002f40:	8b8978c3          	fmadd.d	fa7,fs2,fs8,fa7
    80002f44:	83797843          	fmadd.d	fa6,fs2,fs7,fa6
    80002f48:	3b6973c3          	fmadd.d	ft7,fs2,fs6,ft7
    80002f4c:	33597343          	fmadd.d	ft6,fs2,fs5,ft6
    80002f50:	63497643          	fmadd.d	fa2,fs2,fs4,fa2
    80002f54:	1384f143          	fmadd.d	ft2,fs1,fs8,ft2
    80002f58:	2b74f2c3          	fmadd.d	ft5,fs1,fs7,ft5
    80002f5c:	2364f243          	fmadd.d	ft4,fs1,fs6,ft4
    80002f60:	1b54f1c3          	fmadd.d	ft3,fs1,fs5,ft3
    80002f64:	7344f743          	fmadd.d	fa4,fs1,fs4,fa4
    80002f68:	5b8475c3          	fmadd.d	fa1,fs0,fs8,fa1
    80002f6c:	0b7470c3          	fmadd.d	ft1,fs0,fs7,ft1
    80002f70:	03647043          	fmadd.d	ft0,fs0,fs6,ft0
    80002f74:	6b5476c3          	fmadd.d	fa3,fs0,fs5,fa3
    80002f78:	7b4477c3          	fmadd.d	fa5,fs0,fs4,fa5
    80002f7c:	97ce                	add	a5,a5,s3
    80002f7e:	f92760e3          	bltu	a4,s2,80002efe <mm_cb+0xdae>
    80002f82:	01d8b027          	fsd	ft9,0(a7)
    80002f86:	01f8b427          	fsd	ft11,8(a7)
    80002f8a:	01e8b827          	fsd	ft10,16(a7)
    80002f8e:	01c8bc27          	fsd	ft8,24(a7)
    80002f92:	02a8b027          	fsd	fa0,32(a7)
    80002f96:	01183027          	fsd	fa7,0(a6)
    80002f9a:	01083427          	fsd	fa6,8(a6)
    80002f9e:	00783827          	fsd	ft7,16(a6)
    80002fa2:	00683c27          	fsd	ft6,24(a6)
    80002fa6:	02c83027          	fsd	fa2,32(a6)
    80002faa:	e8043703          	ld	a4,-384(s0)
    80002fae:	00253027          	fsd	ft2,0(a0)
    80002fb2:	00553427          	fsd	ft5,8(a0)
    80002fb6:	00453827          	fsd	ft4,16(a0)
    80002fba:	00353c27          	fsd	ft3,24(a0)
    80002fbe:	b118                	fsd	fa4,32(a0)
    80002fc0:	00b33027          	fsd	fa1,0(t1)
    80002fc4:	00133427          	fsd	ft1,8(t1)
    80002fc8:	00033827          	fsd	ft0,16(t1)
    80002fcc:	00d33c27          	fsd	fa3,24(t1)
    80002fd0:	02f33027          	fsd	fa5,32(t1)
    80002fd4:	005f0793          	addi	a5,t5,5
    80002fd8:	8f3e                	mv	t5,a5
    80002fda:	02888893          	addi	a7,a7,40
    80002fde:	02880813          	addi	a6,a6,40
    80002fe2:	02850513          	addi	a0,a0,40
    80002fe6:	02830313          	addi	t1,t1,40
    80002fea:	02838393          	addi	t2,t2,40
    80002fee:	b6e7ece3          	bltu	a5,a4,80002b66 <mm_cb+0xa16>
    80002ff2:	e0843703          	ld	a4,-504(s0)
    80002ff6:	ec043783          	ld	a5,-320(s0)
    80002ffa:	e6843303          	ld	t1,-408(s0)
    80002ffe:	f2843803          	ld	a6,-216(s0)
    80003002:	00f708b3          	add	a7,a4,a5
    80003006:	6018                	ld	a4,0(s0)
    80003008:	df843783          	ld	a5,-520(s0)
    8000300c:	ef043603          	ld	a2,-272(s0)
    80003010:	e03a                	sd	a4,0(sp)
    80003012:	de843583          	ld	a1,-536(s0)
    80003016:	f1843703          	ld	a4,-232(s0)
    8000301a:	137d                	addi	t1,t1,-1
    8000301c:	86ee                	mv	a3,s11
    8000301e:	4511                	li	a0,4
    80003020:	e6643423          	sd	t1,-408(s0)
    80003024:	fddfe0ef          	jal	ra,80002000 <mm_naive>
    80003028:	e1843783          	ld	a5,-488(s0)
    8000302c:	dd843703          	ld	a4,-552(s0)
    80003030:	e6843303          	ld	t1,-408(s0)
    80003034:	9dbe                	add	s11,s11,a5
    80003036:	993e                	add	s2,s2,a5
    80003038:	94be                	add	s1,s1,a5
    8000303a:	ec043783          	ld	a5,-320(s0)
    8000303e:	97ba                	add	a5,a5,a4
    80003040:	ecf43023          	sd	a5,-320(s0)
    80003044:	ae031fe3          	bnez	t1,80002b42 <mm_cb+0x9f2>
    80003048:	e5043703          	ld	a4,-432(s0)
    8000304c:	e7043483          	ld	s1,-400(s0)
    80003050:	ec843d83          	ld	s11,-312(s0)
    80003054:	e9843303          	ld	t1,-360(s0)
    80003058:	009706b3          	add	a3,a4,s1
    8000305c:	6018                	ld	a4,0(s0)
    8000305e:	ea843883          	ld	a7,-344(s0)
    80003062:	f2843803          	ld	a6,-216(s0)
    80003066:	e03a                	sd	a4,0(sp)
    80003068:	ef043603          	ld	a2,-272(s0)
    8000306c:	f1843703          	ld	a4,-232(s0)
    80003070:	e3043583          	ld	a1,-464(s0)
    80003074:	87ee                	mv	a5,s11
    80003076:	01830913          	addi	s2,t1,24
    8000307a:	4501                	li	a0,0
    8000307c:	e9243c23          	sd	s2,-360(s0)
    80003080:	f81fe0ef          	jal	ra,80002000 <mm_naive>
    80003084:	0c048793          	addi	a5,s1,192
    80003088:	e6f43823          	sd	a5,-400(s0)
    8000308c:	dc043783          	ld	a5,-576(s0)
    80003090:	97ee                	add	a5,a5,s11
    80003092:	ecf43423          	sd	a5,-312(s0)
    80003096:	f1043783          	ld	a5,-240(s0)
    8000309a:	a4f965e3          	bltu	s2,a5,80002ae4 <mm_cb+0x994>
    8000309e:	a3b5                	j	8000360a <mm_cb+0x14ba>
    800030a0:	ec843703          	ld	a4,-312(s0)
    800030a4:	47e5                	li	a5,25
    800030a6:	df043683          	ld	a3,-528(s0)
    800030aa:	02f757b3          	divu	a5,a4,a5
    800030ae:	ef043983          	ld	s3,-272(s0)
    800030b2:	070e                	slli	a4,a4,0x3
    800030b4:	4d81                	li	s11,0
    800030b6:	01368933          	add	s2,a3,s3
    800030ba:	dd043683          	ld	a3,-560(s0)
    800030be:	8f9a                	mv	t6,t1
    800030c0:	013684b3          	add	s1,a3,s3
    800030c4:	e2043683          	ld	a3,-480(s0)
    800030c8:	9736                	add	a4,a4,a3
    800030ca:	ece43023          	sd	a4,-320(s0)
    800030ce:	e9843703          	ld	a4,-360(s0)
    800030d2:	97ba                	add	a5,a5,a4
    800030d4:	6705                	lui	a4,0x1
    800030d6:	2c070713          	addi	a4,a4,704 # 12c0 <buflen.1+0x1240>
    800030da:	02e787b3          	mul	a5,a5,a4
    800030de:	ed043703          	ld	a4,-304(s0)
    800030e2:	00f702b3          	add	t0,a4,a5
    800030e6:	0c828393          	addi	t2,t0,200
    800030ea:	e6543423          	sd	t0,-408(s0)
    800030ee:	82ee                	mv	t0,s11
    800030f0:	e7843d83          	ld	s11,-392(s0)
    800030f4:	ec043f03          	ld	t5,-320(s0)
    800030f8:	f3838513          	addi	a0,t2,-200
    800030fc:	00053e87          	fld	ft9,0(a0)
    80003100:	00853f87          	fld	ft11,8(a0)
    80003104:	01053f07          	fld	ft10,16(a0)
    80003108:	01853e07          	fld	ft8,24(a0)
    8000310c:	3108                	fld	fa0,32(a0)
    8000310e:	0c853887          	fld	fa7,200(a0)
    80003112:	0d053807          	fld	fa6,208(a0)
    80003116:	0d853387          	fld	ft7,216(a0)
    8000311a:	0e053307          	fld	ft6,224(a0)
    8000311e:	3570                	fld	fa2,232(a0)
    80003120:	19053107          	fld	ft2,400(a0)
    80003124:	19853287          	fld	ft5,408(a0)
    80003128:	1a053207          	fld	ft4,416(a0)
    8000312c:	1a853187          	fld	ft3,424(a0)
    80003130:	1b053707          	fld	fa4,432(a0)
    80003134:	25853587          	fld	fa1,600(a0)
    80003138:	26053087          	fld	ft1,608(a0)
    8000313c:	26853007          	fld	ft0,616(a0)
    80003140:	27053687          	fld	fa3,624(a0)
    80003144:	27853787          	fld	fa5,632(a0)
    80003148:	87fa                	mv	a5,t5
    8000314a:	3299f363          	bgeu	s3,s1,80003470 <mm_cb+0x1320>
    8000314e:	22e70cd3          	fmv.d	fs9,fa4
    80003152:	221084d3          	fmv.d	fs1,ft1
    80003156:	22f78953          	fmv.d	fs2,fa5
    8000315a:	013d0633          	add	a2,s10,s3
    8000315e:	23ce0bd3          	fmv.d	fs7,ft8
    80003162:	22420b53          	fmv.d	fs6,ft4
    80003166:	22318dd3          	fmv.d	fs11,ft3
    8000316a:	23ff8753          	fmv.d	fa4,ft11
    8000316e:	23de80d3          	fmv.d	ft1,ft9
    80003172:	23ef07d3          	fmv.d	fa5,ft10
    80003176:	00cd06b3          	add	a3,s10,a2
    8000317a:	00dd05b3          	add	a1,s10,a3
    8000317e:	874e                	mv	a4,s3
    80003180:	00063f07          	fld	ft10,0(a2)
    80003184:	0006be87          	fld	ft9,0(a3)
    80003188:	00073e07          	fld	ft8,0(a4)
    8000318c:	0005ba87          	fld	fs5,0(a1)
    80003190:	0107bc07          	fld	fs8,16(a5)
    80003194:	0187b987          	fld	fs3,24(a5)
    80003198:	3380                	fld	fs0,32(a5)
    8000319a:	0007b207          	fld	ft4,0(a5)
    8000319e:	0087b187          	fld	ft3,8(a5)
    800031a2:	bb3e7fc3          	fmadd.d	ft11,ft8,fs3,fs7
    800031a6:	3b8f7a43          	fmadd.d	fs4,ft10,fs8,ft7
    800031aa:	8a4f7bc3          	fmadd.d	fs7,ft10,ft4,fa7
    800031ae:	6b3af3c3          	fmadd.d	ft7,fs5,fs3,fa3
    800031b2:	823f7d43          	fmadd.d	fs10,ft10,ft3,fa6
    800031b6:	124ef143          	fmadd.d	ft2,ft9,ft4,ft2
    800031ba:	333f7843          	fmadd.d	fa6,ft10,fs3,ft6
    800031be:	2a3ef8c3          	fmadd.d	fa7,ft9,ft3,ft5
    800031c2:	628f7343          	fmadd.d	ft6,ft10,fs0,fa2
    800031c6:	ca8efcc3          	fmadd.d	fs9,ft9,fs0,fs9
    800031ca:	db3ef643          	fmadd.d	fa2,ft9,fs3,fs11
    800031ce:	038af043          	fmadd.d	ft0,fs5,fs8,ft0
    800031d2:	0a4e70c3          	fmadd.d	ft1,ft8,ft4,ft1
    800031d6:	723e7743          	fmadd.d	fa4,ft8,ft3,fa4
    800031da:	5a4af243          	fmadd.d	ft4,fs5,ft4,fa1
    800031de:	4a3af1c3          	fmadd.d	ft3,fs5,ft3,fs1
    800031e2:	7b8e77c3          	fmadd.d	fa5,ft8,fs8,fa5
    800031e6:	928afac3          	fmadd.d	fs5,fs5,fs0,fs2
    800031ea:	528e7e43          	fmadd.d	ft8,ft8,fs0,fa0
    800031ee:	b38efb43          	fmadd.d	fs6,ft9,fs8,fs6
    800031f2:	01478833          	add	a6,a5,s4
    800031f6:	2708                	fld	fa0,8(a4)
    800031f8:	260c                	fld	fa1,8(a2)
    800031fa:	0086b287          	fld	ft5,8(a3)
    800031fe:	2594                	fld	fa3,8(a1)
    80003200:	00883987          	fld	fs3,8(a6)
    80003204:	01083907          	fld	fs2,16(a6)
    80003208:	01883487          	fld	fs1,24(a6)
    8000320c:	02083407          	fld	fs0,32(a6)
    80003210:	00083e87          	fld	ft9,0(a6)
    80003214:	d335fd43          	fmadd.d	fs10,fa1,fs3,fs10
    80003218:	a325fa43          	fmadd.d	fs4,fa1,fs2,fs4
    8000321c:	bbd5ff43          	fmadd.d	ft10,fa1,ft9,fs7
    80003220:	8295f843          	fmadd.d	fa6,fa1,fs1,fa6
    80003224:	0bd570c3          	fmadd.d	ft1,fa0,ft9,ft1
    80003228:	3285f5c3          	fmadd.d	fa1,fa1,fs0,ft6
    8000322c:	73357743          	fmadd.d	fa4,fa0,fs3,fa4
    80003230:	13d2f343          	fmadd.d	ft6,ft5,ft9,ft2
    80003234:	7b2577c3          	fmadd.d	fa5,fa0,fs2,fa5
    80003238:	0326f143          	fmadd.d	ft2,fa3,fs2,ft0
    8000323c:	23d6fec3          	fmadd.d	ft9,fa3,ft9,ft4
    80003240:	3a96f043          	fmadd.d	ft0,fa3,fs1,ft7
    80003244:	fa957fc3          	fmadd.d	ft11,fa0,fs1,ft11
    80003248:	8b32f8c3          	fmadd.d	fa7,ft5,fs3,fa7
    8000324c:	e2857543          	fmadd.d	fa0,fa0,fs0,ft8
    80003250:	b322fb43          	fmadd.d	fs6,ft5,fs2,fs6
    80003254:	1b36fe43          	fmadd.d	ft8,fa3,fs3,ft3
    80003258:	6292f643          	fmadd.d	fa2,ft5,fs1,fa2
    8000325c:	aa86f6c3          	fmadd.d	fa3,fa3,fs0,fs5
    80003260:	ca82f2c3          	fmadd.d	ft5,ft5,fs0,fs9
    80003264:	00fc0833          	add	a6,s8,a5
    80003268:	0105b987          	fld	fs3,16(a1)
    8000326c:	01073907          	fld	fs2,16(a4)
    80003270:	2a04                	fld	fs1,16(a2)
    80003272:	2a80                	fld	fs0,16(a3)
    80003274:	02083d87          	fld	fs11,32(a6)
    80003278:	00083a87          	fld	fs5,0(a6)
    8000327c:	00883b87          	fld	fs7,8(a6)
    80003280:	01083c07          	fld	fs8,16(a6)
    80003284:	01883c87          	fld	fs9,24(a6)
    80003288:	f354ff43          	fmadd.d	ft10,fs1,fs5,ft10
    8000328c:	a384f3c3          	fmadd.d	ft7,fs1,fs8,fs4
    80003290:	fb997fc3          	fmadd.d	ft11,fs2,fs9,ft11
    80003294:	8394f1c3          	fmadd.d	ft3,fs1,fs9,fa6
    80003298:	33547243          	fmadd.d	ft4,fs0,fs5,ft6
    8000329c:	8b7478c3          	fmadd.d	fa7,fs0,fs7,fa7
    800032a0:	0b5970c3          	fmadd.d	ft1,fs2,fs5,ft1
    800032a4:	73797743          	fmadd.d	fa4,fs2,fs7,fa4
    800032a8:	eb59fac3          	fmadd.d	fs5,fs3,fs5,ft9
    800032ac:	7b8977c3          	fmadd.d	fa5,fs2,fs8,fa5
    800032b0:	b3847b43          	fmadd.d	fs6,fs0,fs8,fs6
    800032b4:	53b97943          	fmadd.d	fs2,fs2,fs11,fa0
    800032b8:	1389fc43          	fmadd.d	fs8,fs3,fs8,ft2
    800032bc:	d374f543          	fmadd.d	fa0,fs1,fs7,fs10
    800032c0:	63947643          	fmadd.d	fa2,fs0,fs9,fa2
    800032c4:	5bb4f4c3          	fmadd.d	fs1,fs1,fs11,fa1
    800032c8:	2bb47443          	fmadd.d	fs0,fs0,fs11,ft5
    800032cc:	6bb9f5c3          	fmadd.d	fa1,fs3,fs11,fa3
    800032d0:	e379fbc3          	fmadd.d	fs7,fs3,fs7,ft8
    800032d4:	0399fcc3          	fmadd.d	fs9,fs3,fs9,ft0
    800032d8:	01778833          	add	a6,a5,s7
    800032dc:	01873287          	fld	ft5,24(a4)
    800032e0:	01883107          	fld	ft2,24(a6)
    800032e4:	00083d07          	fld	fs10,0(a6)
    800032e8:	00883a07          	fld	fs4,8(a6)
    800032ec:	01083987          	fld	fs3,16(a6)
    800032f0:	02083007          	fld	ft0,32(a6)
    800032f4:	2e94                	fld	fa3,24(a3)
    800032f6:	0185bd87          	fld	fs11,24(a1)
    800032fa:	01863307          	fld	ft6,24(a2)
    800032fe:	fa22fec3          	fmadd.d	ft9,ft5,ft2,ft11
    80003302:	6226f643          	fmadd.d	fa2,fa3,ft2,fa2
    80003306:	9202ffc3          	fmadd.d	ft11,ft5,ft0,fs2
    8000330a:	f3a37e43          	fmadd.d	ft8,ft6,fs10,ft10
    8000330e:	ca2df943          	fmadd.d	fs2,fs11,ft2,fs9
    80003312:	53437843          	fmadd.d	fa6,ft6,fs4,fa0
    80003316:	5a0dfcc3          	fmadd.d	fs9,fs11,ft0,fa1
    8000331a:	4206f543          	fmadd.d	fa0,fa3,ft0,fs0
    8000331e:	0ba2f0c3          	fmadd.d	ft1,ft5,fs10,ft1
    80003322:	7342f743          	fmadd.d	fa4,ft5,fs4,fa4
    80003326:	7b32f7c3          	fmadd.d	fa5,ft5,fs3,fa5
    8000332a:	3b3373c3          	fmadd.d	ft7,ft6,fs3,ft7
    8000332e:	8b46f2c3          	fmadd.d	ft5,fa3,fs4,fa7
    80003332:	1a2371c3          	fmadd.d	ft3,ft6,ft2,ft3
    80003336:	bb4dfa43          	fmadd.d	fs4,fs11,fs4,fs7
    8000333a:	4a037343          	fmadd.d	ft6,ft6,ft0,fs1
    8000333e:	23a6f243          	fmadd.d	ft4,fa3,fs10,ft4
    80003342:	b336fb43          	fmadd.d	fs6,fa3,fs3,fs6
    80003346:	abadfd43          	fmadd.d	fs10,fs11,fs10,fs5
    8000334a:	c33df9c3          	fmadd.d	fs3,fs11,fs3,fs8
    8000334e:	00fc8833          	add	a6,s9,a5
    80003352:	3294                	fld	fa3,32(a3)
    80003354:	02073007          	fld	ft0,32(a4)
    80003358:	320c                	fld	fa1,32(a2)
    8000335a:	0205bc07          	fld	fs8,32(a1)
    8000335e:	00083a87          	fld	fs5,0(a6)
    80003362:	00883487          	fld	fs1,8(a6)
    80003366:	01083407          	fld	fs0,16(a6)
    8000336a:	02083107          	fld	ft2,32(a6)
    8000336e:	01883f07          	fld	ft10,24(a6)
    80003372:	e355f8c3          	fmadd.d	fa7,fa1,fs5,ft8
    80003376:	0b5070c3          	fmadd.d	ft1,ft0,fs5,ft1
    8000337a:	ebe07bc3          	fmadd.d	fs7,ft0,ft10,ft9
    8000337e:	63e6fdc3          	fmadd.d	fs11,fa3,ft10,fa2
    80003382:	5226fe43          	fmadd.d	ft8,fa3,ft2,fa0
    80003386:	9a8c7ec3          	fmadd.d	ft9,fs8,fs0,fs3
    8000338a:	72907743          	fmadd.d	fa4,ft0,fs1,fa4
    8000338e:	7a8077c3          	fmadd.d	fa5,ft0,fs0,fa5
    80003392:	8295f843          	fmadd.d	fa6,fa1,fs1,fa6
    80003396:	fa207043          	fmadd.d	ft0,ft0,ft2,ft11
    8000339a:	3a85f3c3          	fmadd.d	ft7,fa1,fs0,ft7
    8000339e:	a29c7fc3          	fmadd.d	ft11,fs8,fs1,fs4
    800033a2:	1be5f1c3          	fmadd.d	ft3,fa1,ft10,ft3
    800033a6:	2356f243          	fmadd.d	ft4,fa3,fs5,ft4
    800033aa:	3225f5c3          	fmadd.d	fa1,fa1,ft2,ft6
    800033ae:	2a96f2c3          	fmadd.d	ft5,fa3,fs1,ft5
    800033b2:	b286fb43          	fmadd.d	fs6,fa3,fs0,fs6
    800033b6:	d35c7d43          	fmadd.d	fs10,fs8,fs5,fs10
    800033ba:	93ec7f43          	fmadd.d	ft10,fs8,ft10,fs2
    800033be:	ca2c7c43          	fmadd.d	fs8,fs8,ft2,fs9
    800033c2:	01678833          	add	a6,a5,s6
    800033c6:	3708                	fld	fa0,40(a4)
    800033c8:	3610                	fld	fa2,40(a2)
    800033ca:	0286bc87          	fld	fs9,40(a3)
    800033ce:	0285ba87          	fld	fs5,40(a1)
    800033d2:	01083907          	fld	fs2,16(a6)
    800033d6:	00083407          	fld	fs0,0(a6)
    800033da:	00883487          	fld	fs1,8(a6)
    800033de:	01883987          	fld	fs3,24(a6)
    800033e2:	02083a07          	fld	fs4,32(a6)
    800033e6:	03070713          	addi	a4,a4,48
    800033ea:	72957743          	fmadd.d	fa4,fa0,fs1,fa4
    800033ee:	7b2577c3          	fmadd.d	fa5,fa0,fs2,fa5
    800033f2:	82967843          	fmadd.d	fa6,fa2,fs1,fa6
    800033f6:	3b2673c3          	fmadd.d	ft7,fa2,fs2,ft7
    800033fa:	2a9cf2c3          	fmadd.d	ft5,fs9,fs1,ft5
    800033fe:	b32cfb43          	fmadd.d	fs6,fs9,fs2,fs6
    80003402:	0a8570c3          	fmadd.d	ft1,fa0,fs0,ft1
    80003406:	bb357bc3          	fmadd.d	fs7,fa0,fs3,fs7
    8000340a:	8a8678c3          	fmadd.d	fa7,fa2,fs0,fa7
    8000340e:	03457543          	fmadd.d	fa0,fa0,fs4,ft0
    80003412:	1b367343          	fmadd.d	ft6,fa2,fs3,ft3
    80003416:	228cf143          	fmadd.d	ft2,fs9,fs0,ft4
    8000341a:	5b467643          	fmadd.d	fa2,fa2,fs4,fa1
    8000341e:	db3cfdc3          	fmadd.d	fs11,fs9,fs3,fs11
    80003422:	eb2af043          	fmadd.d	ft0,fs5,fs2,ft9
    80003426:	e34cfcc3          	fmadd.d	fs9,fs9,fs4,ft8
    8000342a:	d28af5c3          	fmadd.d	fa1,fs5,fs0,fs10
    8000342e:	fa9af4c3          	fmadd.d	fs1,fs5,fs1,ft11
    80003432:	f33af6c3          	fmadd.d	fa3,fs5,fs3,ft10
    80003436:	c34af943          	fmadd.d	fs2,fs5,fs4,fs8
    8000343a:	97ee                	add	a5,a5,s11
    8000343c:	03060613          	addi	a2,a2,48
    80003440:	03068693          	addi	a3,a3,48
    80003444:	03058593          	addi	a1,a1,48
    80003448:	d2976ce3          	bltu	a4,s1,80003180 <mm_cb+0x1030>
    8000344c:	22e70fd3          	fmv.d	ft11,fa4
    80003450:	22f78f53          	fmv.d	ft10,fa5
    80003454:	22108ed3          	fmv.d	ft9,ft1
    80003458:	237b8e53          	fmv.d	ft8,fs7
    8000345c:	236b0253          	fmv.d	ft4,fs6
    80003460:	23bd81d3          	fmv.d	ft3,fs11
    80003464:	239c8753          	fmv.d	fa4,fs9
    80003468:	229480d3          	fmv.d	ft1,fs1
    8000346c:	232907d3          	fmv.d	fa5,fs2
    80003470:	e8843783          	ld	a5,-376(s0)
    80003474:	97fa                	add	a5,a5,t5
    80003476:	0924f563          	bgeu	s1,s2,80003500 <mm_cb+0x13b0>
    8000347a:	8726                	mv	a4,s1
    8000347c:	01a705b3          	add	a1,a4,s10
    80003480:	01a58633          	add	a2,a1,s10
    80003484:	01a606b3          	add	a3,a2,s10
    80003488:	00073987          	fld	fs3,0(a4)
    8000348c:	0007bc07          	fld	fs8,0(a5)
    80003490:	0087bb87          	fld	fs7,8(a5)
    80003494:	0107bb07          	fld	fs6,16(a5)
    80003498:	0187ba87          	fld	fs5,24(a5)
    8000349c:	0207ba07          	fld	fs4,32(a5)
    800034a0:	0005b907          	fld	fs2,0(a1)
    800034a4:	2204                	fld	fs1,0(a2)
    800034a6:	2280                	fld	fs0,0(a3)
    800034a8:	0721                	addi	a4,a4,8
    800034aa:	eb89fec3          	fmadd.d	ft9,fs3,fs8,ft9
    800034ae:	fb79ffc3          	fmadd.d	ft11,fs3,fs7,ft11
    800034b2:	f369ff43          	fmadd.d	ft10,fs3,fs6,ft10
    800034b6:	e359fe43          	fmadd.d	ft8,fs3,fs5,ft8
    800034ba:	5349f543          	fmadd.d	fa0,fs3,fs4,fa0
    800034be:	8b8978c3          	fmadd.d	fa7,fs2,fs8,fa7
    800034c2:	83797843          	fmadd.d	fa6,fs2,fs7,fa6
    800034c6:	3b6973c3          	fmadd.d	ft7,fs2,fs6,ft7
    800034ca:	33597343          	fmadd.d	ft6,fs2,fs5,ft6
    800034ce:	63497643          	fmadd.d	fa2,fs2,fs4,fa2
    800034d2:	1384f143          	fmadd.d	ft2,fs1,fs8,ft2
    800034d6:	2b74f2c3          	fmadd.d	ft5,fs1,fs7,ft5
    800034da:	2364f243          	fmadd.d	ft4,fs1,fs6,ft4
    800034de:	1b54f1c3          	fmadd.d	ft3,fs1,fs5,ft3
    800034e2:	7344f743          	fmadd.d	fa4,fs1,fs4,fa4
    800034e6:	5b8475c3          	fmadd.d	fa1,fs0,fs8,fa1
    800034ea:	0b7470c3          	fmadd.d	ft1,fs0,fs7,ft1
    800034ee:	03647043          	fmadd.d	ft0,fs0,fs6,ft0
    800034f2:	6b5476c3          	fmadd.d	fa3,fs0,fs5,fa3
    800034f6:	7b4477c3          	fmadd.d	fa5,fs0,fs4,fa5
    800034fa:	97d2                	add	a5,a5,s4
    800034fc:	f92760e3          	bltu	a4,s2,8000347c <mm_cb+0x132c>
    80003500:	01d53027          	fsd	ft9,0(a0)
    80003504:	01f53427          	fsd	ft11,8(a0)
    80003508:	01e53827          	fsd	ft10,16(a0)
    8000350c:	01c53c27          	fsd	ft8,24(a0)
    80003510:	b108                	fsd	fa0,32(a0)
    80003512:	0d153427          	fsd	fa7,200(a0)
    80003516:	0d053827          	fsd	fa6,208(a0)
    8000351a:	0c753c27          	fsd	ft7,216(a0)
    8000351e:	0e653027          	fsd	ft6,224(a0)
    80003522:	b570                	fsd	fa2,232(a0)
    80003524:	18253827          	fsd	ft2,400(a0)
    80003528:	18553c27          	fsd	ft5,408(a0)
    8000352c:	1a453027          	fsd	ft4,416(a0)
    80003530:	1a353427          	fsd	ft3,424(a0)
    80003534:	1ae53827          	fsd	fa4,432(a0)
    80003538:	24b53c27          	fsd	fa1,600(a0)
    8000353c:	26153027          	fsd	ft1,608(a0)
    80003540:	26053427          	fsd	ft0,616(a0)
    80003544:	26d53827          	fsd	fa3,624(a0)
    80003548:	26f53c27          	fsd	fa5,632(a0)
    8000354c:	028f0f13          	addi	t5,t5,40
    80003550:	02850513          	addi	a0,a0,40
    80003554:	bbef94e3          	bne	t6,t5,800030fc <mm_cb+0xfac>
    80003558:	f2843803          	ld	a6,-216(s0)
    8000355c:	f1843703          	ld	a4,-232(s0)
    80003560:	e2843603          	ld	a2,-472(s0)
    80003564:	47e5                	li	a5,25
    80003566:	06428293          	addi	t0,t0,100
    8000356a:	889e                	mv	a7,t2
    8000356c:	86ce                	mv	a3,s3
    8000356e:	e03e                	sd	a5,0(sp)
    80003570:	4581                	li	a1,0
    80003572:	87fe                	mv	a5,t6
    80003574:	4511                	li	a0,4
    80003576:	da743823          	sd	t2,-592(s0)
    8000357a:	dbf43c23          	sd	t6,-584(s0)
    8000357e:	de543c23          	sd	t0,-520(s0)
    80003582:	a7ffe0ef          	jal	ra,80002000 <mm_naive>
    80003586:	e1843783          	ld	a5,-488(s0)
    8000358a:	db043383          	ld	t2,-592(s0)
    8000358e:	df843283          	ld	t0,-520(s0)
    80003592:	99be                	add	s3,s3,a5
    80003594:	993e                	add	s2,s2,a5
    80003596:	94be                	add	s1,s1,a5
    80003598:	25800793          	li	a5,600
    8000359c:	db843f83          	ld	t6,-584(s0)
    800035a0:	32038393          	addi	t2,t2,800
    800035a4:	b4f298e3          	bne	t0,a5,800030f4 <mm_cb+0xfa4>
    800035a8:	e6843283          	ld	t0,-408(s0)
    800035ac:	47e5                	li	a5,25
    800035ae:	e03e                	sd	a5,0(sp)
    800035b0:	6785                	lui	a5,0x1
    800035b2:	2c078793          	addi	a5,a5,704 # 12c0 <buflen.1+0x1240>
    800035b6:	00f288b3          	add	a7,t0,a5
    800035ba:	f2843803          	ld	a6,-216(s0)
    800035be:	ea843783          	ld	a5,-344(s0)
    800035c2:	f1843703          	ld	a4,-232(s0)
    800035c6:	e4843683          	ld	a3,-440(s0)
    800035ca:	e2843603          	ld	a2,-472(s0)
    800035ce:	45e5                	li	a1,25
    800035d0:	4501                	li	a0,0
    800035d2:	edf43023          	sd	t6,-320(s0)
    800035d6:	a2bfe0ef          	jal	ra,80002000 <mm_naive>
    800035da:	ec043303          	ld	t1,-320(s0)
    800035de:	ca8ff06f          	j	80002a86 <mm_cb+0x936>
    800035e2:	e5043703          	ld	a4,-432(s0)
    800035e6:	ef043783          	ld	a5,-272(s0)
    800035ea:	97ba                	add	a5,a5,a4
    800035ec:	e4f43423          	sd	a5,-440(s0)
    800035f0:	ee043703          	ld	a4,-288(s0)
    800035f4:	f2043783          	ld	a5,-224(s0)
    800035f8:	caf76e63          	bltu	a4,a5,80002ab4 <mm_cb+0x964>
    800035fc:	ed843783          	ld	a5,-296(s0)
    80003600:	eb043703          	ld	a4,-336(s0)
    80003604:	97ba                	add	a5,a5,a4
    80003606:	eaf43423          	sd	a5,-344(s0)
    8000360a:	ea843703          	ld	a4,-344(s0)
    8000360e:	e9043783          	ld	a5,-368(s0)
    80003612:	ece43c23          	sd	a4,-296(s0)
    80003616:	e4843703          	ld	a4,-440(s0)
    8000361a:	07e1                	addi	a5,a5,24
    8000361c:	e8f43823          	sd	a5,-368(s0)
    80003620:	eee43823          	sd	a4,-272(s0)
    80003624:	f0843703          	ld	a4,-248(s0)
    80003628:	00e7f463          	bgeu	a5,a4,80003630 <mm_cb+0x14e0>
    8000362c:	f7dfe06f          	j	800025a8 <mm_cb+0x458>
    80003630:	e6043783          	ld	a5,-416(s0)
    80003634:	f0843703          	ld	a4,-248(s0)
    80003638:	12f76463          	bltu	a4,a5,80003760 <mm_cb+0x1610>
    8000363c:	e0043783          	ld	a5,-512(s0)
    80003640:	6018                	ld	a4,0(s0)
    80003642:	eb843e03          	ld	t3,-328(s0)
    80003646:	6505                	lui	a0,0x1
    80003648:	00e78eb3          	add	t4,a5,a4
    8000364c:	2c050293          	addi	t0,a0,704 # 12c0 <buflen.1+0x1240>
    80003650:	0e9a                	slli	t4,t4,0x6
    80003652:	4801                	li	a6,0
    80003654:	4fe1                	li	t6,24
    80003656:	43e5                	li	t2,25
    80003658:	38050513          	addi	a0,a0,896
    8000365c:	f2043783          	ld	a5,-224(s0)
    80003660:	08fff563          	bgeu	t6,a5,800036ea <mm_cb+0x159a>
    80003664:	03f855b3          	divu	a1,a6,t6
    80003668:	ef843783          	ld	a5,-264(s0)
    8000366c:	8372                	mv	t1,t3
    8000366e:	4881                	li	a7,0
    80003670:	02f585b3          	mul	a1,a1,a5
    80003674:	ed043703          	ld	a4,-304(s0)
    80003678:	8f1a                	mv	t5,t1
    8000367a:	0278d7b3          	divu	a5,a7,t2
    8000367e:	97ae                	add	a5,a5,a1
    80003680:	025787b3          	mul	a5,a5,t0
    80003684:	97ba                	add	a5,a5,a4
    80003686:	0c078693          	addi	a3,a5,192
    8000368a:	00a78633          	add	a2,a5,a0
    8000368e:	f4068793          	addi	a5,a3,-192
    80003692:	877a                	mv	a4,t5
    80003694:	0007b087          	fld	ft1,0(a5)
    80003698:	0087b007          	fld	ft0,8(a5)
    8000369c:	2b88                	fld	fa0,16(a5)
    8000369e:	2f8c                	fld	fa1,24(a5)
    800036a0:	3390                	fld	fa2,32(a5)
    800036a2:	3794                	fld	fa3,40(a5)
    800036a4:	3b98                	fld	fa4,48(a5)
    800036a6:	3f9c                	fld	fa5,56(a5)
    800036a8:	00173027          	fsd	ft1,0(a4)
    800036ac:	00073427          	fsd	ft0,8(a4)
    800036b0:	ab08                	fsd	fa0,16(a4)
    800036b2:	af0c                	fsd	fa1,24(a4)
    800036b4:	b310                	fsd	fa2,32(a4)
    800036b6:	b714                	fsd	fa3,40(a4)
    800036b8:	bb18                	fsd	fa4,48(a4)
    800036ba:	bf1c                	fsd	fa5,56(a4)
    800036bc:	04078793          	addi	a5,a5,64
    800036c0:	04070713          	addi	a4,a4,64
    800036c4:	fcf698e3          	bne	a3,a5,80003694 <mm_cb+0x1544>
    800036c8:	229c                	fld	fa5,0(a3)
    800036ca:	ee843783          	ld	a5,-280(s0)
    800036ce:	0c868693          	addi	a3,a3,200
    800036d2:	0cff3027          	fsd	fa5,192(t5)
    800036d6:	9f3e                	add	t5,t5,a5
    800036d8:	fad61be3          	bne	a2,a3,8000368e <mm_cb+0x153e>
    800036dc:	ee043783          	ld	a5,-288(s0)
    800036e0:	08e5                	addi	a7,a7,25
    800036e2:	0c830313          	addi	t1,t1,200
    800036e6:	f8f8e7e3          	bltu	a7,a5,80003674 <mm_cb+0x1524>
    800036ea:	f0843783          	ld	a5,-248(s0)
    800036ee:	0861                	addi	a6,a6,24
    800036f0:	9e76                	add	t3,t3,t4
    800036f2:	f6f865e3          	bltu	a6,a5,8000365c <mm_cb+0x150c>
    800036f6:	d8040113          	addi	sp,s0,-640
    800036fa:	27813083          	ld	ra,632(sp)
    800036fe:	27013403          	ld	s0,624(sp)
    80003702:	26813483          	ld	s1,616(sp)
    80003706:	26013903          	ld	s2,608(sp)
    8000370a:	25813983          	ld	s3,600(sp)
    8000370e:	25013a03          	ld	s4,592(sp)
    80003712:	24813a83          	ld	s5,584(sp)
    80003716:	24013b03          	ld	s6,576(sp)
    8000371a:	23813b83          	ld	s7,568(sp)
    8000371e:	23013c03          	ld	s8,560(sp)
    80003722:	22813c83          	ld	s9,552(sp)
    80003726:	22013d03          	ld	s10,544(sp)
    8000372a:	21813d83          	ld	s11,536(sp)
    8000372e:	20813407          	fld	fs0,520(sp)
    80003732:	20013487          	fld	fs1,512(sp)
    80003736:	397e                	fld	fs2,504(sp)
    80003738:	39de                	fld	fs3,496(sp)
    8000373a:	3a3e                	fld	fs4,488(sp)
    8000373c:	3a9e                	fld	fs5,480(sp)
    8000373e:	2b7e                	fld	fs6,472(sp)
    80003740:	2bde                	fld	fs7,464(sp)
    80003742:	2c3e                	fld	fs8,456(sp)
    80003744:	2c9e                	fld	fs9,448(sp)
    80003746:	3d7a                	fld	fs10,440(sp)
    80003748:	3dda                	fld	fs11,432(sp)
    8000374a:	28010113          	addi	sp,sp,640
    8000374e:	8082                	ret
    80003750:	f0043783          	ld	a5,-256(s0)
    80003754:	c399                	beqz	a5,8000375a <mm_cb+0x160a>
    80003756:	bb7fe06f          	j	8000230c <mm_cb+0x1bc>
    8000375a:	e6043783          	ld	a5,-416(s0)
    8000375e:	dfc1                	beqz	a5,800036f6 <mm_cb+0x15a6>
    80003760:	f2043783          	ld	a5,-224(s0)
    80003764:	6e078d63          	beqz	a5,80003e5e <mm_cb+0x1d0e>
    80003768:	e6043783          	ld	a5,-416(s0)
    8000376c:	46e1                	li	a3,24
    8000376e:	f2843603          	ld	a2,-216(s0)
    80003772:	02d7f6b3          	remu	a3,a5,a3
    80003776:	601c                	ld	a5,0(s0)
    80003778:	f1843503          	ld	a0,-232(s0)
    8000377c:	00261713          	slli	a4,a2,0x2
    80003780:	00379593          	slli	a1,a5,0x3
    80003784:	00161793          	slli	a5,a2,0x1
    80003788:	97b2                	add	a5,a5,a2
    8000378a:	00379a13          	slli	s4,a5,0x3
    8000378e:	00479d13          	slli	s10,a5,0x4
    80003792:	079a                	slli	a5,a5,0x6
    80003794:	e2f43023          	sd	a5,-480(s0)
    80003798:	00551793          	slli	a5,a0,0x5
    8000379c:	e2f43423          	sd	a5,-472(s0)
    800037a0:	601c                	ld	a5,0(s0)
    800037a2:	9732                	add	a4,a4,a2
    800037a4:	00371c93          	slli	s9,a4,0x3
    800037a8:	0796                	slli	a5,a5,0x5
    800037aa:	e5843703          	ld	a4,-424(s0)
    800037ae:	e2f43823          	sd	a5,-464(s0)
    800037b2:	f0843783          	ld	a5,-248(s0)
    800037b6:	e8e43823          	sd	a4,-368(s0)
    800037ba:	00361f93          	slli	t6,a2,0x3
    800037be:	00461993          	slli	s3,a2,0x4
    800037c2:	00561b93          	slli	s7,a2,0x5
    800037c6:	00351d93          	slli	s11,a0,0x3
    800037ca:	8b66                	mv	s6,s9
    800037cc:	eeb43423          	sd	a1,-280(s0)
    800037d0:	ea043423          	sd	zero,-344(s0)
    800037d4:	8c4e                	mv	s8,s3
    800037d6:	8ad2                	mv	s5,s4
    800037d8:	8cfe                	mv	s9,t6
    800037da:	02f58733          	mul	a4,a1,a5
    800037de:	ffc6f613          	andi	a2,a3,-4
    800037e2:	8a8d                	andi	a3,a3,3
    800037e4:	e6d43423          	sd	a3,-408(s0)
    800037e8:	eb843683          	ld	a3,-328(s0)
    800037ec:	e8c43023          	sd	a2,-384(s0)
    800037f0:	9736                	add	a4,a4,a3
    800037f2:	03b606b3          	mul	a3,a2,s11
    800037f6:	ece43423          	sd	a4,-312(s0)
    800037fa:	03b787b3          	mul	a5,a5,s11
    800037fe:	e6d43023          	sd	a3,-416(s0)
    80003802:	e1043683          	ld	a3,-496(s0)
    80003806:	97b6                	add	a5,a5,a3
    80003808:	e2f43c23          	sd	a5,-456(s0)
    8000380c:	02c587b3          	mul	a5,a1,a2
    80003810:	e4f43c23          	sd	a5,-424(s0)
    80003814:	f1043783          	ld	a5,-240(s0)
    80003818:	60078e63          	beqz	a5,80003e34 <mm_cb+0x1ce4>
    8000381c:	ea843703          	ld	a4,-344(s0)
    80003820:	f2043783          	ld	a5,-224(s0)
    80003824:	8f99                	sub	a5,a5,a4
    80003826:	e4f43823          	sd	a5,-432(s0)
    8000382a:	eaf43823          	sd	a5,-336(s0)
    8000382e:	4765                	li	a4,25
    80003830:	00f77563          	bgeu	a4,a5,8000383a <mm_cb+0x16ea>
    80003834:	47e5                	li	a5,25
    80003836:	eaf43823          	sd	a5,-336(s0)
    8000383a:	eb043703          	ld	a4,-336(s0)
    8000383e:	4695                	li	a3,5
    80003840:	e5843603          	ld	a2,-424(s0)
    80003844:	02d757b3          	divu	a5,a4,a3
    80003848:	ec843583          	ld	a1,-312(s0)
    8000384c:	ea043023          	sd	zero,-352(s0)
    80003850:	962e                	add	a2,a2,a1
    80003852:	e4c43423          	sd	a2,-440(s0)
    80003856:	e3843603          	ld	a2,-456(s0)
    8000385a:	e8c43423          	sd	a2,-376(s0)
    8000385e:	e9043603          	ld	a2,-368(s0)
    80003862:	ecc43023          	sd	a2,-320(s0)
    80003866:	02d77733          	remu	a4,a4,a3
    8000386a:	e6e43823          	sd	a4,-400(s0)
    8000386e:	00279713          	slli	a4,a5,0x2
    80003872:	97ba                	add	a5,a5,a4
    80003874:	f0f43023          	sd	a5,-256(s0)
    80003878:	078e                	slli	a5,a5,0x3
    8000387a:	e6f43c23          	sd	a5,-392(s0)
    8000387e:	ea043703          	ld	a4,-352(s0)
    80003882:	f1043783          	ld	a5,-240(s0)
    80003886:	8f99                	sub	a5,a5,a4
    80003888:	ecf43c23          	sd	a5,-296(s0)
    8000388c:	4761                	li	a4,24
    8000388e:	00f77563          	bgeu	a4,a5,80003898 <mm_cb+0x1748>
    80003892:	47e1                	li	a5,24
    80003894:	ecf43c23          	sd	a5,-296(s0)
    80003898:	e8043783          	ld	a5,-384(s0)
    8000389c:	54078063          	beqz	a5,80003ddc <mm_cb+0x1c8c>
    800038a0:	ec043683          	ld	a3,-320(s0)
    800038a4:	e7843703          	ld	a4,-392(s0)
    800038a8:	ed843783          	ld	a5,-296(s0)
    800038ac:	e8043c23          	sd	zero,-360(s0)
    800038b0:	9736                	add	a4,a4,a3
    800038b2:	ec843683          	ld	a3,-312(s0)
    800038b6:	00379913          	slli	s2,a5,0x3
    800038ba:	e4e43023          	sd	a4,-448(s0)
    800038be:	8f36                	mv	t5,a3
    800038c0:	4699                	li	a3,6
    800038c2:	02d7d7b3          	divu	a5,a5,a3
    800038c6:	e8843703          	ld	a4,-376(s0)
    800038ca:	993a                	add	s2,s2,a4
    800038cc:	89ba                	mv	s3,a4
    800038ce:	00179493          	slli	s1,a5,0x1
    800038d2:	94be                	add	s1,s1,a5
    800038d4:	03a787b3          	mul	a5,a5,s10
    800038d8:	0492                	slli	s1,s1,0x4
    800038da:	94ba                	add	s1,s1,a4
    800038dc:	eef43823          	sd	a5,-272(s0)
    800038e0:	e5043783          	ld	a5,-432(s0)
    800038e4:	4711                	li	a4,4
    800038e6:	4af77263          	bgeu	a4,a5,80003d8a <mm_cb+0x1c3a>
    800038ea:	ee843783          	ld	a5,-280(s0)
    800038ee:	ec043383          	ld	t2,-320(s0)
    800038f2:	88fa                	mv	a7,t5
    800038f4:	01e78833          	add	a6,a5,t5
    800038f8:	01078533          	add	a0,a5,a6
    800038fc:	00a78333          	add	t1,a5,a0
    80003900:	4081                	li	ra,0
    80003902:	0008be87          	fld	ft9,0(a7)
    80003906:	0088bf87          	fld	ft11,8(a7)
    8000390a:	0108bf07          	fld	ft10,16(a7)
    8000390e:	0188be07          	fld	ft8,24(a7)
    80003912:	0208b507          	fld	fa0,32(a7)
    80003916:	00083887          	fld	fa7,0(a6)
    8000391a:	00883807          	fld	fa6,8(a6)
    8000391e:	01083387          	fld	ft7,16(a6)
    80003922:	01883307          	fld	ft6,24(a6)
    80003926:	02083607          	fld	fa2,32(a6)
    8000392a:	00053107          	fld	ft2,0(a0)
    8000392e:	00853287          	fld	ft5,8(a0)
    80003932:	01053207          	fld	ft4,16(a0)
    80003936:	01853187          	fld	ft3,24(a0)
    8000393a:	3118                	fld	fa4,32(a0)
    8000393c:	00033587          	fld	fa1,0(t1)
    80003940:	00833087          	fld	ft1,8(t1)
    80003944:	01033007          	fld	ft0,16(t1)
    80003948:	01833687          	fld	fa3,24(t1)
    8000394c:	02033787          	fld	fa5,32(t1)
    80003950:	879e                	mv	a5,t2
    80003952:	3299fe63          	bgeu	s3,s1,80003c8e <mm_cb+0x1b3e>
    80003956:	221084d3          	fmv.d	fs1,ft1
    8000395a:	22d689d3          	fmv.d	fs3,fa3
    8000395e:	22f78953          	fmv.d	fs2,fa5
    80003962:	22e706d3          	fmv.d	fa3,fa4
    80003966:	013d8633          	add	a2,s11,s3
    8000396a:	23ce0bd3          	fmv.d	fs7,ft8
    8000396e:	22630c53          	fmv.d	fs8,ft6
    80003972:	22420b53          	fmv.d	fs6,ft4
    80003976:	22318dd3          	fmv.d	fs11,ft3
    8000397a:	23de80d3          	fmv.d	ft1,ft9
    8000397e:	23ff8753          	fmv.d	fa4,ft11
    80003982:	23ef07d3          	fmv.d	fa5,ft10
    80003986:	00cd86b3          	add	a3,s11,a2
    8000398a:	00dd85b3          	add	a1,s11,a3
    8000398e:	874e                	mv	a4,s3
    80003990:	00073e07          	fld	ft8,0(a4)
    80003994:	00063307          	fld	ft6,0(a2)
    80003998:	0107be87          	fld	ft9,16(a5)
    8000399c:	3380                	fld	fs0,32(a5)
    8000399e:	0007b207          	fld	ft4,0(a5)
    800039a2:	0087b187          	fld	ft3,8(a5)
    800039a6:	0187bc87          	fld	fs9,24(a5)
    800039aa:	0a4e70c3          	fmadd.d	ft1,ft8,ft4,ft1
    800039ae:	723e7743          	fmadd.d	fa4,ft8,ft3,fa4
    800039b2:	bb9e7fc3          	fmadd.d	ft11,ft8,fs9,fs7
    800039b6:	7bde77c3          	fmadd.d	fa5,ft8,ft9,fa5
    800039ba:	528e7e43          	fmadd.d	ft8,ft8,fs0,fa0
    800039be:	8a437543          	fmadd.d	fa0,ft6,ft4,fa7
    800039c2:	0006bf07          	fld	ft10,0(a3)
    800039c6:	0005ba87          	fld	fs5,0(a1)
    800039ca:	82337d43          	fmadd.d	fs10,ft6,ft3,fa6
    800039ce:	124f7bc3          	fmadd.d	fs7,ft10,ft4,ft2
    800039d2:	3bd37a43          	fmadd.d	fs4,ft6,ft9,ft7
    800039d6:	6a8f7143          	fmadd.d	ft2,ft10,fs0,fa3
    800039da:	c3937843          	fmadd.d	fa6,ft6,fs9,fs8
    800039de:	2a3f78c3          	fmadd.d	fa7,ft10,ft3,ft5
    800039e2:	62837343          	fmadd.d	ft6,ft6,fs0,fa2
    800039e6:	5a4af243          	fmadd.d	ft4,fs5,ft4,fa1
    800039ea:	db9f7643          	fmadd.d	fa2,ft10,fs9,fs11
    800039ee:	4a3af1c3          	fmadd.d	ft3,fs5,ft3,fs1
    800039f2:	03daf043          	fmadd.d	ft0,fs5,ft9,ft0
    800039f6:	9b9afcc3          	fmadd.d	fs9,fs5,fs9,fs3
    800039fa:	b3df7b43          	fmadd.d	fs6,ft10,ft9,fs6
    800039fe:	928afac3          	fmadd.d	fs5,fs5,fs0,fs2
    80003a02:	e2050ed3          	fmv.x.d	t4,fa0
    80003a06:	00fc8e33          	add	t3,s9,a5
    80003a0a:	2708                	fld	fa0,8(a4)
    80003a0c:	260c                	fld	fa1,8(a2)
    80003a0e:	0086b287          	fld	ft5,8(a3)
    80003a12:	2594                	fld	fa3,8(a1)
    80003a14:	008e3987          	fld	fs3,8(t3)
    80003a18:	010e3907          	fld	fs2,16(t3)
    80003a1c:	018e3487          	fld	fs1,24(t3)
    80003a20:	020e3407          	fld	fs0,32(t3)
    80003a24:	000e3e87          	fld	ft9,0(t3)
    80003a28:	f20e83d3          	fmv.d.x	ft7,t4
    80003a2c:	d335fd43          	fmadd.d	fs10,fa1,fs3,fs10
    80003a30:	a325fa43          	fmadd.d	fs4,fa1,fs2,fs4
    80003a34:	3bd5ff43          	fmadd.d	ft10,fa1,ft9,ft7
    80003a38:	8295f843          	fmadd.d	fa6,fa1,fs1,fa6
    80003a3c:	0bd570c3          	fmadd.d	ft1,fa0,ft9,ft1
    80003a40:	3285f5c3          	fmadd.d	fa1,fa1,fs0,ft6
    80003a44:	73357743          	fmadd.d	fa4,fa0,fs3,fa4
    80003a48:	bbd2f343          	fmadd.d	ft6,ft5,ft9,fs7
    80003a4c:	7b2577c3          	fmadd.d	fa5,fa0,fs2,fa5
    80003a50:	23d6fec3          	fmadd.d	ft9,fa3,ft9,ft4
    80003a54:	fa957fc3          	fmadd.d	ft11,fa0,fs1,ft11
    80003a58:	8b32f8c3          	fmadd.d	fa7,ft5,fs3,fa7
    80003a5c:	e2857543          	fmadd.d	fa0,fa0,fs0,ft8
    80003a60:	b322fb43          	fmadd.d	fs6,ft5,fs2,fs6
    80003a64:	1b36fe43          	fmadd.d	ft8,fa3,fs3,ft3
    80003a68:	6292f643          	fmadd.d	fa2,ft5,fs1,fa2
    80003a6c:	1282f2c3          	fmadd.d	ft5,ft5,fs0,ft2
    80003a70:	0326f143          	fmadd.d	ft2,fa3,fs2,ft0
    80003a74:	ca96f043          	fmadd.d	ft0,fa3,fs1,fs9
    80003a78:	aa86f6c3          	fmadd.d	fa3,fa3,fs0,fs5
    80003a7c:	00fc0e33          	add	t3,s8,a5
    80003a80:	0105b987          	fld	fs3,16(a1)
    80003a84:	01073907          	fld	fs2,16(a4)
    80003a88:	2a04                	fld	fs1,16(a2)
    80003a8a:	2a80                	fld	fs0,16(a3)
    80003a8c:	020e3d87          	fld	fs11,32(t3)
    80003a90:	000e3a87          	fld	fs5,0(t3)
    80003a94:	008e3b87          	fld	fs7,8(t3)
    80003a98:	010e3c07          	fld	fs8,16(t3)
    80003a9c:	018e3c87          	fld	fs9,24(t3)
    80003aa0:	f354ff43          	fmadd.d	ft10,fs1,fs5,ft10
    80003aa4:	a384f3c3          	fmadd.d	ft7,fs1,fs8,fs4
    80003aa8:	fb997fc3          	fmadd.d	ft11,fs2,fs9,ft11
    80003aac:	8394f1c3          	fmadd.d	ft3,fs1,fs9,fa6
    80003ab0:	33547243          	fmadd.d	ft4,fs0,fs5,ft6
    80003ab4:	8b7478c3          	fmadd.d	fa7,fs0,fs7,fa7
    80003ab8:	0b5970c3          	fmadd.d	ft1,fs2,fs5,ft1
    80003abc:	73797743          	fmadd.d	fa4,fs2,fs7,fa4
    80003ac0:	eb59fac3          	fmadd.d	fs5,fs3,fs5,ft9
    80003ac4:	7b8977c3          	fmadd.d	fa5,fs2,fs8,fa5
    80003ac8:	b3847b43          	fmadd.d	fs6,fs0,fs8,fs6
    80003acc:	53b97943          	fmadd.d	fs2,fs2,fs11,fa0
    80003ad0:	1389fc43          	fmadd.d	fs8,fs3,fs8,ft2
    80003ad4:	d374f543          	fmadd.d	fa0,fs1,fs7,fs10
    80003ad8:	63947643          	fmadd.d	fa2,fs0,fs9,fa2
    80003adc:	5bb4f4c3          	fmadd.d	fs1,fs1,fs11,fa1
    80003ae0:	2bb47443          	fmadd.d	fs0,fs0,fs11,ft5
    80003ae4:	6bb9f5c3          	fmadd.d	fa1,fs3,fs11,fa3
    80003ae8:	e379fbc3          	fmadd.d	fs7,fs3,fs7,ft8
    80003aec:	0399fcc3          	fmadd.d	fs9,fs3,fs9,ft0
    80003af0:	01578e33          	add	t3,a5,s5
    80003af4:	01873287          	fld	ft5,24(a4)
    80003af8:	018e3107          	fld	ft2,24(t3)
    80003afc:	000e3d07          	fld	fs10,0(t3)
    80003b00:	008e3a07          	fld	fs4,8(t3)
    80003b04:	010e3987          	fld	fs3,16(t3)
    80003b08:	020e3007          	fld	ft0,32(t3)
    80003b0c:	2e94                	fld	fa3,24(a3)
    80003b0e:	0185bd87          	fld	fs11,24(a1)
    80003b12:	01863307          	fld	ft6,24(a2)
    80003b16:	fa22fec3          	fmadd.d	ft9,ft5,ft2,ft11
    80003b1a:	6226f643          	fmadd.d	fa2,fa3,ft2,fa2
    80003b1e:	f3a37e43          	fmadd.d	ft8,ft6,fs10,ft10
    80003b22:	9202ffc3          	fmadd.d	ft11,ft5,ft0,fs2
    80003b26:	53437843          	fmadd.d	fa6,ft6,fs4,fa0
    80003b2a:	ca2df943          	fmadd.d	fs2,fs11,ft2,fs9
    80003b2e:	4206f543          	fmadd.d	fa0,fa3,ft0,fs0
    80003b32:	5a0dfcc3          	fmadd.d	fs9,fs11,ft0,fa1
    80003b36:	0ba2f0c3          	fmadd.d	ft1,ft5,fs10,ft1
    80003b3a:	7342f743          	fmadd.d	fa4,ft5,fs4,fa4
    80003b3e:	7b32f7c3          	fmadd.d	fa5,ft5,fs3,fa5
    80003b42:	3b3373c3          	fmadd.d	ft7,ft6,fs3,ft7
    80003b46:	8b46f2c3          	fmadd.d	ft5,fa3,fs4,fa7
    80003b4a:	1a2371c3          	fmadd.d	ft3,ft6,ft2,ft3
    80003b4e:	bb4dfa43          	fmadd.d	fs4,fs11,fs4,fs7
    80003b52:	4a037343          	fmadd.d	ft6,ft6,ft0,fs1
    80003b56:	23a6f243          	fmadd.d	ft4,fa3,fs10,ft4
    80003b5a:	b336fb43          	fmadd.d	fs6,fa3,fs3,fs6
    80003b5e:	abadfd43          	fmadd.d	fs10,fs11,fs10,fs5
    80003b62:	c33df9c3          	fmadd.d	fs3,fs11,fs3,fs8
    80003b66:	00fb8e33          	add	t3,s7,a5
    80003b6a:	3294                	fld	fa3,32(a3)
    80003b6c:	0205bc07          	fld	fs8,32(a1)
    80003b70:	02073007          	fld	ft0,32(a4)
    80003b74:	320c                	fld	fa1,32(a2)
    80003b76:	000e3a87          	fld	fs5,0(t3)
    80003b7a:	008e3487          	fld	fs1,8(t3)
    80003b7e:	010e3407          	fld	fs0,16(t3)
    80003b82:	020e3107          	fld	ft2,32(t3)
    80003b86:	018e3f07          	fld	ft10,24(t3)
    80003b8a:	e355f8c3          	fmadd.d	fa7,fa1,fs5,ft8
    80003b8e:	0b5070c3          	fmadd.d	ft1,ft0,fs5,ft1
    80003b92:	ebe07bc3          	fmadd.d	fs7,ft0,ft10,ft9
    80003b96:	63e6fdc3          	fmadd.d	fs11,fa3,ft10,fa2
    80003b9a:	5226fe43          	fmadd.d	ft8,fa3,ft2,fa0
    80003b9e:	9a8c7ec3          	fmadd.d	ft9,fs8,fs0,fs3
    80003ba2:	72907743          	fmadd.d	fa4,ft0,fs1,fa4
    80003ba6:	7a8077c3          	fmadd.d	fa5,ft0,fs0,fa5
    80003baa:	8295f843          	fmadd.d	fa6,fa1,fs1,fa6
    80003bae:	fa207043          	fmadd.d	ft0,ft0,ft2,ft11
    80003bb2:	3a85f3c3          	fmadd.d	ft7,fa1,fs0,ft7
    80003bb6:	1be5f1c3          	fmadd.d	ft3,fa1,ft10,ft3
    80003bba:	2356f243          	fmadd.d	ft4,fa3,fs5,ft4
    80003bbe:	3225f5c3          	fmadd.d	fa1,fa1,ft2,ft6
    80003bc2:	2a96f2c3          	fmadd.d	ft5,fa3,fs1,ft5
    80003bc6:	a29c7343          	fmadd.d	ft6,fs8,fs1,fs4
    80003bca:	b286fb43          	fmadd.d	fs6,fa3,fs0,fs6
    80003bce:	d35c7d43          	fmadd.d	fs10,fs8,fs5,fs10
    80003bd2:	93ec7f43          	fmadd.d	ft10,fs8,ft10,fs2
    80003bd6:	ca2c7cc3          	fmadd.d	fs9,fs8,ft2,fs9
    80003bda:	01678e33          	add	t3,a5,s6
    80003bde:	3708                	fld	fa0,40(a4)
    80003be0:	3610                	fld	fa2,40(a2)
    80003be2:	3694                	fld	fa3,40(a3)
    80003be4:	0285ba87          	fld	fs5,40(a1)
    80003be8:	010e3907          	fld	fs2,16(t3)
    80003bec:	000e3407          	fld	fs0,0(t3)
    80003bf0:	008e3487          	fld	fs1,8(t3)
    80003bf4:	018e3987          	fld	fs3,24(t3)
    80003bf8:	020e3a07          	fld	fs4,32(t3)
    80003bfc:	03070713          	addi	a4,a4,48
    80003c00:	72957743          	fmadd.d	fa4,fa0,fs1,fa4
    80003c04:	7b2577c3          	fmadd.d	fa5,fa0,fs2,fa5
    80003c08:	bb357bc3          	fmadd.d	fs7,fa0,fs3,fs7
    80003c0c:	82967843          	fmadd.d	fa6,fa2,fs1,fa6
    80003c10:	3b2673c3          	fmadd.d	ft7,fa2,fs2,ft7
    80003c14:	1b367c43          	fmadd.d	fs8,fa2,fs3,ft3
    80003c18:	2a96f2c3          	fmadd.d	ft5,fa3,fs1,ft5
    80003c1c:	b326fb43          	fmadd.d	fs6,fa3,fs2,fs6
    80003c20:	db36fdc3          	fmadd.d	fs11,fa3,fs3,fs11
    80003c24:	0a8570c3          	fmadd.d	ft1,fa0,fs0,ft1
    80003c28:	8a8678c3          	fmadd.d	fa7,fa2,fs0,fa7
    80003c2c:	03457543          	fmadd.d	fa0,fa0,fs4,ft0
    80003c30:	5b467643          	fmadd.d	fa2,fa2,fs4,fa1
    80003c34:	2286f143          	fmadd.d	ft2,fa3,fs0,ft4
    80003c38:	eb2af043          	fmadd.d	ft0,fs5,fs2,ft9
    80003c3c:	e346f6c3          	fmadd.d	fa3,fa3,fs4,ft8
    80003c40:	d28af5c3          	fmadd.d	fa1,fs5,fs0,fs10
    80003c44:	329af4c3          	fmadd.d	fs1,fs5,fs1,ft6
    80003c48:	f33af9c3          	fmadd.d	fs3,fs5,fs3,ft10
    80003c4c:	cb4af943          	fmadd.d	fs2,fs5,fs4,fs9
    80003c50:	97ea                	add	a5,a5,s10
    80003c52:	03060613          	addi	a2,a2,48
    80003c56:	03068693          	addi	a3,a3,48
    80003c5a:	03058593          	addi	a1,a1,48
    80003c5e:	d29769e3          	bltu	a4,s1,80003990 <mm_cb+0x1840>
    80003c62:	22108ed3          	fmv.d	ft9,ft1
    80003c66:	22e70fd3          	fmv.d	ft11,fa4
    80003c6a:	22f78f53          	fmv.d	ft10,fa5
    80003c6e:	22d68753          	fmv.d	fa4,fa3
    80003c72:	237b8e53          	fmv.d	ft8,fs7
    80003c76:	238c0353          	fmv.d	ft6,fs8
    80003c7a:	236b0253          	fmv.d	ft4,fs6
    80003c7e:	23bd81d3          	fmv.d	ft3,fs11
    80003c82:	229480d3          	fmv.d	ft1,fs1
    80003c86:	233986d3          	fmv.d	fa3,fs3
    80003c8a:	232907d3          	fmv.d	fa5,fs2
    80003c8e:	ef043783          	ld	a5,-272(s0)
    80003c92:	979e                	add	a5,a5,t2
    80003c94:	0924f563          	bgeu	s1,s2,80003d1e <mm_cb+0x1bce>
    80003c98:	8726                	mv	a4,s1
    80003c9a:	01b705b3          	add	a1,a4,s11
    80003c9e:	01b58633          	add	a2,a1,s11
    80003ca2:	01b606b3          	add	a3,a2,s11
    80003ca6:	00073987          	fld	fs3,0(a4)
    80003caa:	0007bc07          	fld	fs8,0(a5)
    80003cae:	0087bb87          	fld	fs7,8(a5)
    80003cb2:	0107bb07          	fld	fs6,16(a5)
    80003cb6:	0187ba87          	fld	fs5,24(a5)
    80003cba:	0207ba07          	fld	fs4,32(a5)
    80003cbe:	0005b907          	fld	fs2,0(a1)
    80003cc2:	2204                	fld	fs1,0(a2)
    80003cc4:	2280                	fld	fs0,0(a3)
    80003cc6:	0721                	addi	a4,a4,8
    80003cc8:	eb89fec3          	fmadd.d	ft9,fs3,fs8,ft9
    80003ccc:	fb79ffc3          	fmadd.d	ft11,fs3,fs7,ft11
    80003cd0:	f369ff43          	fmadd.d	ft10,fs3,fs6,ft10
    80003cd4:	e359fe43          	fmadd.d	ft8,fs3,fs5,ft8
    80003cd8:	5349f543          	fmadd.d	fa0,fs3,fs4,fa0
    80003cdc:	8b8978c3          	fmadd.d	fa7,fs2,fs8,fa7
    80003ce0:	83797843          	fmadd.d	fa6,fs2,fs7,fa6
    80003ce4:	3b6973c3          	fmadd.d	ft7,fs2,fs6,ft7
    80003ce8:	33597343          	fmadd.d	ft6,fs2,fs5,ft6
    80003cec:	63497643          	fmadd.d	fa2,fs2,fs4,fa2
    80003cf0:	1384f143          	fmadd.d	ft2,fs1,fs8,ft2
    80003cf4:	2b74f2c3          	fmadd.d	ft5,fs1,fs7,ft5
    80003cf8:	2364f243          	fmadd.d	ft4,fs1,fs6,ft4
    80003cfc:	1b54f1c3          	fmadd.d	ft3,fs1,fs5,ft3
    80003d00:	7344f743          	fmadd.d	fa4,fs1,fs4,fa4
    80003d04:	5b8475c3          	fmadd.d	fa1,fs0,fs8,fa1
    80003d08:	0b7470c3          	fmadd.d	ft1,fs0,fs7,ft1
    80003d0c:	03647043          	fmadd.d	ft0,fs0,fs6,ft0
    80003d10:	6b5476c3          	fmadd.d	fa3,fs0,fs5,fa3
    80003d14:	7b4477c3          	fmadd.d	fa5,fs0,fs4,fa5
    80003d18:	97e6                	add	a5,a5,s9
    80003d1a:	f92760e3          	bltu	a4,s2,80003c9a <mm_cb+0x1b4a>
    80003d1e:	01d8b027          	fsd	ft9,0(a7)
    80003d22:	01f8b427          	fsd	ft11,8(a7)
    80003d26:	01e8b827          	fsd	ft10,16(a7)
    80003d2a:	01c8bc27          	fsd	ft8,24(a7)
    80003d2e:	02a8b027          	fsd	fa0,32(a7)
    80003d32:	01183027          	fsd	fa7,0(a6)
    80003d36:	01083427          	fsd	fa6,8(a6)
    80003d3a:	00783827          	fsd	ft7,16(a6)
    80003d3e:	00683c27          	fsd	ft6,24(a6)
    80003d42:	02c83027          	fsd	fa2,32(a6)
    80003d46:	f0043783          	ld	a5,-256(s0)
    80003d4a:	00253027          	fsd	ft2,0(a0)
    80003d4e:	00553427          	fsd	ft5,8(a0)
    80003d52:	00453827          	fsd	ft4,16(a0)
    80003d56:	00353c27          	fsd	ft3,24(a0)
    80003d5a:	b118                	fsd	fa4,32(a0)
    80003d5c:	00b33027          	fsd	fa1,0(t1)
    80003d60:	00133427          	fsd	ft1,8(t1)
    80003d64:	00033827          	fsd	ft0,16(t1)
    80003d68:	00d33c27          	fsd	fa3,24(t1)
    80003d6c:	02f33027          	fsd	fa5,32(t1)
    80003d70:	0095                	addi	ra,ra,5
    80003d72:	02888893          	addi	a7,a7,40
    80003d76:	02880813          	addi	a6,a6,40
    80003d7a:	02850513          	addi	a0,a0,40
    80003d7e:	02830313          	addi	t1,t1,40
    80003d82:	02838393          	addi	t2,t2,40
    80003d86:	b6f0eee3          	bltu	ra,a5,80003902 <mm_cb+0x17b2>
    80003d8a:	e7843783          	ld	a5,-392(s0)
    80003d8e:	e9843303          	ld	t1,-360(s0)
    80003d92:	f2843803          	ld	a6,-216(s0)
    80003d96:	01e788b3          	add	a7,a5,t5
    80003d9a:	601c                	ld	a5,0(s0)
    80003d9c:	f1843703          	ld	a4,-232(s0)
    80003da0:	ed843603          	ld	a2,-296(s0)
    80003da4:	e03e                	sd	a5,0(sp)
    80003da6:	e7043583          	ld	a1,-400(s0)
    80003daa:	e4043783          	ld	a5,-448(s0)
    80003dae:	0311                	addi	t1,t1,4
    80003db0:	86ce                	mv	a3,s3
    80003db2:	4511                	li	a0,4
    80003db4:	8a7a                	mv	s4,t5
    80003db6:	e8643c23          	sd	t1,-360(s0)
    80003dba:	a46fe0ef          	jal	ra,80002000 <mm_naive>
    80003dbe:	e2843783          	ld	a5,-472(s0)
    80003dc2:	e9843303          	ld	t1,-360(s0)
    80003dc6:	99be                	add	s3,s3,a5
    80003dc8:	993e                	add	s2,s2,a5
    80003dca:	94be                	add	s1,s1,a5
    80003dcc:	e3043783          	ld	a5,-464(s0)
    80003dd0:	97d2                	add	a5,a5,s4
    80003dd2:	8f3e                	mv	t5,a5
    80003dd4:	e8043783          	ld	a5,-384(s0)
    80003dd8:	b0f364e3          	bltu	t1,a5,800038e0 <mm_cb+0x1790>
    80003ddc:	e6043703          	ld	a4,-416(s0)
    80003de0:	e8843483          	ld	s1,-376(s0)
    80003de4:	ec043983          	ld	s3,-320(s0)
    80003de8:	ea043303          	ld	t1,-352(s0)
    80003dec:	009706b3          	add	a3,a4,s1
    80003df0:	6018                	ld	a4,0(s0)
    80003df2:	e4843883          	ld	a7,-440(s0)
    80003df6:	f2843803          	ld	a6,-216(s0)
    80003dfa:	e03a                	sd	a4,0(sp)
    80003dfc:	ed843603          	ld	a2,-296(s0)
    80003e00:	f1843703          	ld	a4,-232(s0)
    80003e04:	eb043583          	ld	a1,-336(s0)
    80003e08:	e6843503          	ld	a0,-408(s0)
    80003e0c:	87ce                	mv	a5,s3
    80003e0e:	01830913          	addi	s2,t1,24
    80003e12:	eb243023          	sd	s2,-352(s0)
    80003e16:	9eafe0ef          	jal	ra,80002000 <mm_naive>
    80003e1a:	e2043783          	ld	a5,-480(s0)
    80003e1e:	97ce                	add	a5,a5,s3
    80003e20:	ecf43023          	sd	a5,-320(s0)
    80003e24:	0c048793          	addi	a5,s1,192
    80003e28:	e8f43423          	sd	a5,-376(s0)
    80003e2c:	f1043783          	ld	a5,-240(s0)
    80003e30:	a4f967e3          	bltu	s2,a5,8000387e <mm_cb+0x172e>
    80003e34:	ec843703          	ld	a4,-312(s0)
    80003e38:	ea843783          	ld	a5,-344(s0)
    80003e3c:	0c870713          	addi	a4,a4,200
    80003e40:	ece43423          	sd	a4,-312(s0)
    80003e44:	e9043703          	ld	a4,-368(s0)
    80003e48:	07e5                	addi	a5,a5,25
    80003e4a:	eaf43423          	sd	a5,-344(s0)
    80003e4e:	0c870713          	addi	a4,a4,200
    80003e52:	e8e43823          	sd	a4,-368(s0)
    80003e56:	f2043703          	ld	a4,-224(s0)
    80003e5a:	9ae7ede3          	bltu	a5,a4,80003814 <mm_cb+0x16c4>
    80003e5e:	601c                	ld	a5,0(s0)
    80003e60:	0786                	slli	a5,a5,0x1
    80003e62:	e0f43023          	sd	a5,-512(s0)
    80003e66:	601c                	ld	a5,0(s0)
    80003e68:	078e                	slli	a5,a5,0x3
    80003e6a:	eef43423          	sd	a5,-280(s0)
    80003e6e:	f0843783          	ld	a5,-248(s0)
    80003e72:	fc079563          	bnez	a5,8000363c <mm_cb+0x14ec>
    80003e76:	b041                	j	800036f6 <mm_cb+0x15a6>
    80003e78:	f2843783          	ld	a5,-216(s0)
    80003e7c:	00179593          	slli	a1,a5,0x1
    80003e80:	00379d13          	slli	s10,a5,0x3
    80003e84:	d58fe06f          	j	800023dc <mm_cb+0x28c>

0000000080003e88 <mm>:
    80003e88:	710d                	addi	sp,sp,-352
    80003e8a:	7e16                	ld	t3,352(sp)
    80003e8c:	eaa2                	sd	s0,336(sp)
    80003e8e:	e52a                	sd	a0,136(sp)
    80003e90:	ee86                	sd	ra,344(sp)
    80003e92:	e6a6                	sd	s1,328(sp)
    80003e94:	e2ca                	sd	s2,320(sp)
    80003e96:	fe4e                	sd	s3,312(sp)
    80003e98:	fa52                	sd	s4,304(sp)
    80003e9a:	f656                	sd	s5,296(sp)
    80003e9c:	f25a                	sd	s6,288(sp)
    80003e9e:	ee5e                	sd	s7,280(sp)
    80003ea0:	ea62                	sd	s8,272(sp)
    80003ea2:	e666                	sd	s9,264(sp)
    80003ea4:	e26a                	sd	s10,256(sp)
    80003ea6:	fdee                	sd	s11,248(sp)
    80003ea8:	b5a2                	fsd	fs0,232(sp)
    80003eaa:	b1a6                	fsd	fs1,224(sp)
    80003eac:	adca                	fsd	fs2,216(sp)
    80003eae:	a9ce                	fsd	fs3,208(sp)
    80003eb0:	a5d2                	fsd	fs4,200(sp)
    80003eb2:	a1d6                	fsd	fs5,192(sp)
    80003eb4:	bd5a                	fsd	fs6,184(sp)
    80003eb6:	b95e                	fsd	fs7,176(sp)
    80003eb8:	b562                	fsd	fs8,168(sp)
    80003eba:	b166                	fsd	fs9,160(sp)
    80003ebc:	842a                	mv	s0,a0
    80003ebe:	e0f2                	sd	t3,64(sp)
    80003ec0:	f02e                	sd	a1,32(sp)
    80003ec2:	f432                	sd	a2,40(sp)
    80003ec4:	e936                	sd	a3,144(sp)
    80003ec6:	f83a                	sd	a4,48(sp)
    80003ec8:	e4be                	sd	a5,72(sp)
    80003eca:	fc42                	sd	a6,56(sp)
    80003ecc:	03000513          	li	a0,48
    80003ed0:	ed46                	sd	a7,152(sp)
    80003ed2:	56856a63          	bltu	a0,s0,80004446 <mm+0x5be>
    80003ed6:	8ebe                	mv	t4,a5
    80003ed8:	03200793          	li	a5,50
    80003edc:	56b7e563          	bltu	a5,a1,80004446 <mm+0x5be>
    80003ee0:	84b2                	mv	s1,a2
    80003ee2:	56c56263          	bltu	a0,a2,80004446 <mm+0x5be>
    80003ee6:	8336                	mv	t1,a3
    80003ee8:	86ba                	mv	a3,a4
    80003eea:	4715                	li	a4,5
    80003eec:	02e5d7b3          	divu	a5,a1,a4
    80003ef0:	ffc47f13          	andi	t5,s0,-4
    80003ef4:	003e1513          	slli	a0,t3,0x3
    80003ef8:	fcaa                	sd	a0,120(sp)
    80003efa:	00369413          	slli	s0,a3,0x3
    80003efe:	8536                	mv	a0,a3
    80003f00:	e8fa                	sd	t5,80(sp)
    80003f02:	862e                	mv	a2,a1
    80003f04:	85f2                	mv	a1,t3
    80003f06:	00279693          	slli	a3,a5,0x2
    80003f0a:	00f68d33          	add	s10,a3,a5
    80003f0e:	4c0f0f63          	beqz	t5,800043ec <mm+0x564>
    80003f12:	4799                	li	a5,6
    80003f14:	02f4d7b3          	divu	a5,s1,a5
    80003f18:	00181a13          	slli	s4,a6,0x1
    80003f1c:	9a42                	add	s4,s4,a6
    80003f1e:	004a1a93          	slli	s5,s4,0x4
    80003f22:	00281693          	slli	a3,a6,0x2
    80003f26:	96c2                	add	a3,a3,a6
    80003f28:	003d1e13          	slli	t3,s10,0x3
    80003f2c:	00369c13          	slli	s8,a3,0x3
    80003f30:	01ce86b3          	add	a3,t4,t3
    80003f34:	f0b6                	sd	a3,96(sp)
    80003f36:	00551693          	slli	a3,a0,0x5
    80003f3a:	00349993          	slli	s3,s1,0x3
    80003f3e:	f8b6                	sd	a3,112(sp)
    80003f40:	00559693          	slli	a3,a1,0x5
    80003f44:	e172                	sd	t3,128(sp)
    80003f46:	00381493          	slli	s1,a6,0x3
    80003f4a:	00481b13          	slli	s6,a6,0x4
    80003f4e:	0a0e                	slli	s4,s4,0x3
    80003f50:	00581b93          	slli	s7,a6,0x5
    80003f54:	8c9a                	mv	s9,t1
    80003f56:	999a                	add	s3,s3,t1
    80003f58:	f4b6                	sd	a3,104(sp)
    80003f5a:	e846                	sd	a7,16(sp)
    80003f5c:	ec02                	sd	zero,24(sp)
    80003f5e:	02e67733          	remu	a4,a2,a4
    80003f62:	00179913          	slli	s2,a5,0x1
    80003f66:	993e                	add	s2,s2,a5
    80003f68:	0912                	slli	s2,s2,0x4
    80003f6a:	991a                	add	s2,s2,t1
    80003f6c:	02fa8db3          	mul	s11,s5,a5
    80003f70:	ecba                	sd	a4,88(sp)
    80003f72:	7782                	ld	a5,32(sp)
    80003f74:	4711                	li	a4,4
    80003f76:	42f77d63          	bgeu	a4,a5,800043b0 <mm+0x528>
    80003f7a:	77e6                	ld	a5,120(sp)
    80003f7c:	68c2                	ld	a7,16(sp)
    80003f7e:	62a6                	ld	t0,72(sp)
    80003f80:	4381                	li	t2,0
    80003f82:	00f88833          	add	a6,a7,a5
    80003f86:	00f80533          	add	a0,a6,a5
    80003f8a:	00f50333          	add	t1,a0,a5
    80003f8e:	0008be87          	fld	ft9,0(a7)
    80003f92:	0088b407          	fld	fs0,8(a7)
    80003f96:	0108bf87          	fld	ft11,16(a7)
    80003f9a:	0188bf07          	fld	ft10,24(a7)
    80003f9e:	0208b007          	fld	ft0,32(a7)
    80003fa2:	00083e07          	fld	ft8,0(a6)
    80003fa6:	00883887          	fld	fa7,8(a6)
    80003faa:	01083807          	fld	fa6,16(a6)
    80003fae:	01883387          	fld	ft7,24(a6)
    80003fb2:	02083587          	fld	fa1,32(a6)
    80003fb6:	00053187          	fld	ft3,0(a0)
    80003fba:	00853307          	fld	ft6,8(a0)
    80003fbe:	01053287          	fld	ft5,16(a0)
    80003fc2:	01853207          	fld	ft4,24(a0)
    80003fc6:	3118                	fld	fa4,32(a0)
    80003fc8:	00033507          	fld	fa0,0(t1)
    80003fcc:	00833107          	fld	ft2,8(t1)
    80003fd0:	01033087          	fld	ft1,16(t1)
    80003fd4:	01833607          	fld	fa2,24(t1)
    80003fd8:	02033787          	fld	fa5,32(t1)
    80003fdc:	8796                	mv	a5,t0
    80003fde:	2d2cfe63          	bgeu	s9,s2,800042ba <mm+0x432>
    80003fe2:	008c8633          	add	a2,s9,s0
    80003fe6:	008606b3          	add	a3,a2,s0
    80003fea:	008685b3          	add	a1,a3,s0
    80003fee:	8766                	mv	a4,s9
    80003ff0:	00063c07          	fld	fs8,0(a2)
    80003ff4:	0006bb87          	fld	fs7,0(a3)
    80003ff8:	2194                	fld	fa3,0(a1)
    80003ffa:	2304                	fld	fs1,0(a4)
    80003ffc:	0007bb07          	fld	fs6,0(a5)
    80004000:	0087ba87          	fld	fs5,8(a5)
    80004004:	0107ba07          	fld	fs4,16(a5)
    80004008:	0187b907          	fld	fs2,24(a5)
    8000400c:	0207b987          	fld	fs3,32(a5)
    80004010:	5366f543          	fmadd.d	fa0,fa3,fs6,fa0
    80004014:	1356f143          	fmadd.d	ft2,fa3,fs5,ft2
    80004018:	733bf743          	fmadd.d	fa4,fs7,fs3,fa4
    8000401c:	0b46f0c3          	fmadd.d	ft1,fa3,fs4,ft1
    80004020:	6326f643          	fmadd.d	fa2,fa3,fs2,fa2
    80004024:	eb64fec3          	fmadd.d	ft9,fs1,fs6,ft9
    80004028:	4354f443          	fmadd.d	fs0,fs1,fs5,fs0
    8000402c:	fb44ffc3          	fmadd.d	ft11,fs1,fs4,ft11
    80004030:	f324ff43          	fmadd.d	ft10,fs1,fs2,ft10
    80004034:	e36c7e43          	fmadd.d	ft8,fs8,fs6,ft8
    80004038:	0334f4c3          	fmadd.d	fs1,fs1,fs3,ft0
    8000403c:	8b5c78c3          	fmadd.d	fa7,fs8,fs5,fa7
    80004040:	5b3c7043          	fmadd.d	ft0,fs8,fs3,fa1
    80004044:	834c7843          	fmadd.d	fa6,fs8,fs4,fa6
    80004048:	3b2c73c3          	fmadd.d	ft7,fs8,fs2,ft7
    8000404c:	1b6bf1c3          	fmadd.d	ft3,fs7,fs6,ft3
    80004050:	335bf343          	fmadd.d	ft6,fs7,fs5,ft6
    80004054:	2b4bf2c3          	fmadd.d	ft5,fs7,fs4,ft5
    80004058:	232bf243          	fmadd.d	ft4,fs7,fs2,ft4
    8000405c:	7b36f943          	fmadd.d	fs2,fa3,fs3,fa5
    80004060:	00f48e33          	add	t3,s1,a5
    80004064:	270c                	fld	fa1,8(a4)
    80004066:	2614                	fld	fa3,8(a2)
    80004068:	0086b987          	fld	fs3,8(a3)
    8000406c:	259c                	fld	fa5,8(a1)
    8000406e:	000e3c07          	fld	fs8,0(t3)
    80004072:	008e3b87          	fld	fs7,8(t3)
    80004076:	010e3b07          	fld	fs6,16(t3)
    8000407a:	018e3a87          	fld	fs5,24(t3)
    8000407e:	020e3a07          	fld	fs4,32(t3)
    80004082:	eb85fec3          	fmadd.d	ft9,fa1,fs8,ft9
    80004086:	4375f443          	fmadd.d	fs0,fa1,fs7,fs0
    8000408a:	fb65ffc3          	fmadd.d	ft11,fa1,fs6,ft11
    8000408e:	f355ff43          	fmadd.d	ft10,fa1,fs5,ft10
    80004092:	e386fe43          	fmadd.d	ft8,fa3,fs8,ft8
    80004096:	4b45f5c3          	fmadd.d	fa1,fa1,fs4,fs1
    8000409a:	8b76f8c3          	fmadd.d	fa7,fa3,fs7,fa7
    8000409e:	5387f4c3          	fmadd.d	fs1,fa5,fs8,fa0
    800040a2:	8366f843          	fmadd.d	fa6,fa3,fs6,fa6
    800040a6:	0b67f543          	fmadd.d	fa0,fa5,fs6,ft1
    800040aa:	3b56f3c3          	fmadd.d	ft7,fa3,fs5,ft7
    800040ae:	1b89f1c3          	fmadd.d	ft3,fs3,fs8,ft3
    800040b2:	0346f6c3          	fmadd.d	fa3,fa3,fs4,ft0
    800040b6:	3379f343          	fmadd.d	ft6,fs3,fs7,ft6
    800040ba:	1377f043          	fmadd.d	ft0,fa5,fs7,ft2
    800040be:	2b69f2c3          	fmadd.d	ft5,fs3,fs6,ft5
    800040c2:	2359f243          	fmadd.d	ft4,fs3,fs5,ft4
    800040c6:	7349f9c3          	fmadd.d	fs3,fs3,fs4,fa4
    800040ca:	6357f743          	fmadd.d	fa4,fa5,fs5,fa2
    800040ce:	9347f7c3          	fmadd.d	fa5,fa5,fs4,fs2
    800040d2:	00fb0e33          	add	t3,s6,a5
    800040d6:	01073c07          	fld	fs8,16(a4)
    800040da:	0106b107          	fld	ft2,16(a3)
    800040de:	0105b087          	fld	ft1,16(a1)
    800040e2:	2a10                	fld	fa2,16(a2)
    800040e4:	020e3907          	fld	fs2,32(t3)
    800040e8:	000e3a07          	fld	fs4,0(t3)
    800040ec:	008e3a87          	fld	fs5,8(t3)
    800040f0:	010e3b07          	fld	fs6,16(t3)
    800040f4:	018e3b87          	fld	fs7,24(t3)
    800040f8:	5b2c75c3          	fmadd.d	fa1,fs8,fs2,fa1
    800040fc:	eb4c7ec3          	fmadd.d	ft9,fs8,fs4,ft9
    80004100:	435c7443          	fmadd.d	fs0,fs8,fs5,fs0
    80004104:	fb6c7fc3          	fmadd.d	ft11,fs8,fs6,ft11
    80004108:	f37c7f43          	fmadd.d	ft10,fs8,fs7,ft10
    8000410c:	e3467e43          	fmadd.d	ft8,fa2,fs4,ft8
    80004110:	8b5678c3          	fmadd.d	fa7,fa2,fs5,fa7
    80004114:	83667843          	fmadd.d	fa6,fa2,fs6,fa6
    80004118:	3b7673c3          	fmadd.d	ft7,fa2,fs7,ft7
    8000411c:	1b4171c3          	fmadd.d	ft3,ft2,fs4,ft3
    80004120:	6b267643          	fmadd.d	fa2,fa2,fs2,fa3
    80004124:	4b40fa43          	fmadd.d	fs4,ft1,fs4,fs1
    80004128:	9b2176c3          	fmadd.d	fa3,ft2,fs2,fs3
    8000412c:	33517343          	fmadd.d	ft6,ft2,fs5,ft6
    80004130:	2b6172c3          	fmadd.d	ft5,ft2,fs6,ft5
    80004134:	0350fac3          	fmadd.d	fs5,ft1,fs5,ft0
    80004138:	5360fb43          	fmadd.d	fs6,ft1,fs6,fa0
    8000413c:	23717243          	fmadd.d	ft4,ft2,fs7,ft4
    80004140:	7370fbc3          	fmadd.d	fs7,ft1,fs7,fa4
    80004144:	7b20f743          	fmadd.d	fa4,ft1,fs2,fa5
    80004148:	01478e33          	add	t3,a5,s4
    8000414c:	01873907          	fld	fs2,24(a4)
    80004150:	000e3507          	fld	fa0,0(t3)
    80004154:	008e3107          	fld	ft2,8(t3)
    80004158:	010e3087          	fld	ft1,16(t3)
    8000415c:	018e3987          	fld	fs3,24(t3)
    80004160:	020e3487          	fld	fs1,32(t3)
    80004164:	01863007          	fld	ft0,24(a2)
    80004168:	2e9c                	fld	fa5,24(a3)
    8000416a:	0185bc07          	fld	fs8,24(a1)
    8000416e:	eaa97ec3          	fmadd.d	ft9,fs2,fa0,ft9
    80004172:	42297443          	fmadd.d	fs0,fs2,ft2,fs0
    80004176:	fa197fc3          	fmadd.d	ft11,fs2,ft1,ft11
    8000417a:	f3397f43          	fmadd.d	ft10,fs2,fs3,ft10
    8000417e:	e2a07e43          	fmadd.d	ft8,ft0,fa0,ft8
    80004182:	5a997943          	fmadd.d	fs2,fs2,fs1,fa1
    80004186:	8a2078c3          	fmadd.d	fa7,ft0,ft2,fa7
    8000418a:	82107843          	fmadd.d	fa6,ft0,ft1,fa6
    8000418e:	3b3073c3          	fmadd.d	ft7,ft0,fs3,ft7
    80004192:	1aa7f1c3          	fmadd.d	ft3,fa5,fa0,ft3
    80004196:	62907043          	fmadd.d	ft0,ft0,fs1,fa2
    8000419a:	a2ac7543          	fmadd.d	fa0,fs8,fa0,fs4
    8000419e:	3227f343          	fmadd.d	ft6,fa5,ft2,ft6
    800041a2:	2a17f2c3          	fmadd.d	ft5,fa5,ft1,ft5
    800041a6:	aa2c7143          	fmadd.d	ft2,fs8,ft2,fs5
    800041aa:	b21c70c3          	fmadd.d	ft1,fs8,ft1,fs6
    800041ae:	2337f243          	fmadd.d	ft4,fa5,fs3,ft4
    800041b2:	6a97f7c3          	fmadd.d	fa5,fa5,fs1,fa3
    800041b6:	bb3c79c3          	fmadd.d	fs3,fs8,fs3,fs7
    800041ba:	729c7c43          	fmadd.d	fs8,fs8,fs1,fa4
    800041be:	00fb8e33          	add	t3,s7,a5
    800041c2:	3304                	fld	fs1,32(a4)
    800041c4:	3214                	fld	fa3,32(a2)
    800041c6:	0206bc87          	fld	fs9,32(a3)
    800041ca:	0205bb87          	fld	fs7,32(a1)
    800041ce:	018e3607          	fld	fa2,24(t3)
    800041d2:	020e3587          	fld	fa1,32(t3)
    800041d6:	000e3b07          	fld	fs6,0(t3)
    800041da:	008e3a87          	fld	fs5,8(t3)
    800041de:	010e3a07          	fld	fs4,16(t3)
    800041e2:	eb64fec3          	fmadd.d	ft9,fs1,fs6,ft9
    800041e6:	4354f443          	fmadd.d	fs0,fs1,fs5,fs0
    800041ea:	fb44ffc3          	fmadd.d	ft11,fs1,fs4,ft11
    800041ee:	f2c4ff43          	fmadd.d	ft10,fs1,fa2,ft10
    800041f2:	e366fe43          	fmadd.d	ft8,fa3,fs6,ft8
    800041f6:	92b4f4c3          	fmadd.d	fs1,fs1,fa1,fs2
    800041fa:	8b56f8c3          	fmadd.d	fa7,fa3,fs5,fa7
    800041fe:	8346f843          	fmadd.d	fa6,fa3,fs4,fa6
    80004202:	3ac6f3c3          	fmadd.d	ft7,fa3,fa2,ft7
    80004206:	1b6cf1c3          	fmadd.d	ft3,fs9,fs6,ft3
    8000420a:	02b6f6c3          	fmadd.d	fa3,fa3,fa1,ft0
    8000420e:	335cf343          	fmadd.d	ft6,fs9,fs5,ft6
    80004212:	2b4cf2c3          	fmadd.d	ft5,fs9,fs4,ft5
    80004216:	22ccf243          	fmadd.d	ft4,fs9,fa2,ft4
    8000421a:	536bfb43          	fmadd.d	fs6,fs7,fs6,fa0
    8000421e:	7abcfcc3          	fmadd.d	fs9,fs9,fa1,fa5
    80004222:	135bfac3          	fmadd.d	fs5,fs7,fs5,ft2
    80004226:	0b4bfa43          	fmadd.d	fs4,fs7,fs4,ft1
    8000422a:	9acbf9c3          	fmadd.d	fs3,fs7,fa2,fs3
    8000422e:	c2bbfbc3          	fmadd.d	fs7,fs7,fa1,fs8
    80004232:	01878e33          	add	t3,a5,s8
    80004236:	02873007          	fld	ft0,40(a4)
    8000423a:	360c                	fld	fa1,40(a2)
    8000423c:	3698                	fld	fa4,40(a3)
    8000423e:	359c                	fld	fa5,40(a1)
    80004240:	000e3507          	fld	fa0,0(t3)
    80004244:	008e3107          	fld	ft2,8(t3)
    80004248:	010e3087          	fld	ft1,16(t3)
    8000424c:	018e3607          	fld	fa2,24(t3)
    80004250:	020e3907          	fld	fs2,32(t3)
    80004254:	03070713          	addi	a4,a4,48
    80004258:	eaa07ec3          	fmadd.d	ft9,ft0,fa0,ft9
    8000425c:	42207443          	fmadd.d	fs0,ft0,ft2,fs0
    80004260:	fa107fc3          	fmadd.d	ft11,ft0,ft1,ft11
    80004264:	f2c07f43          	fmadd.d	ft10,ft0,fa2,ft10
    80004268:	e2a5fe43          	fmadd.d	ft8,fa1,fa0,ft8
    8000426c:	8a25f8c3          	fmadd.d	fa7,fa1,ft2,fa7
    80004270:	8215f843          	fmadd.d	fa6,fa1,ft1,fa6
    80004274:	3ac5f3c3          	fmadd.d	ft7,fa1,fa2,ft7
    80004278:	1aa771c3          	fmadd.d	ft3,fa4,fa0,ft3
    8000427c:	32277343          	fmadd.d	ft6,fa4,ft2,ft6
    80004280:	2a1772c3          	fmadd.d	ft5,fa4,ft1,ft5
    80004284:	22c77243          	fmadd.d	ft4,fa4,fa2,ft4
    80004288:	b2a7f543          	fmadd.d	fa0,fa5,fa0,fs6
    8000428c:	aa27f143          	fmadd.d	ft2,fa5,ft2,fs5
    80004290:	a217f0c3          	fmadd.d	ft1,fa5,ft1,fs4
    80004294:	9ac7f643          	fmadd.d	fa2,fa5,fa2,fs3
    80004298:	4b207043          	fmadd.d	ft0,ft0,fs2,fs1
    8000429c:	6b25f5c3          	fmadd.d	fa1,fa1,fs2,fa3
    800042a0:	cb277743          	fmadd.d	fa4,fa4,fs2,fs9
    800042a4:	bb27f7c3          	fmadd.d	fa5,fa5,fs2,fs7
    800042a8:	97d6                	add	a5,a5,s5
    800042aa:	03060613          	addi	a2,a2,48
    800042ae:	03068693          	addi	a3,a3,48
    800042b2:	03058593          	addi	a1,a1,48
    800042b6:	d3276de3          	bltu	a4,s2,80003ff0 <mm+0x168>
    800042ba:	005d87b3          	add	a5,s11,t0
    800042be:	09397563          	bgeu	s2,s3,80004348 <mm+0x4c0>
    800042c2:	874a                	mv	a4,s2
    800042c4:	008705b3          	add	a1,a4,s0
    800042c8:	00858633          	add	a2,a1,s0
    800042cc:	008606b3          	add	a3,a2,s0
    800042d0:	00073987          	fld	fs3,0(a4)
    800042d4:	0007bc07          	fld	fs8,0(a5)
    800042d8:	0087bb87          	fld	fs7,8(a5)
    800042dc:	0107bb07          	fld	fs6,16(a5)
    800042e0:	0187ba87          	fld	fs5,24(a5)
    800042e4:	0207ba07          	fld	fs4,32(a5)
    800042e8:	0005b907          	fld	fs2,0(a1)
    800042ec:	2204                	fld	fs1,0(a2)
    800042ee:	2294                	fld	fa3,0(a3)
    800042f0:	0721                	addi	a4,a4,8
    800042f2:	eb89fec3          	fmadd.d	ft9,fs3,fs8,ft9
    800042f6:	4379f443          	fmadd.d	fs0,fs3,fs7,fs0
    800042fa:	fb69ffc3          	fmadd.d	ft11,fs3,fs6,ft11
    800042fe:	f359ff43          	fmadd.d	ft10,fs3,fs5,ft10
    80004302:	0349f043          	fmadd.d	ft0,fs3,fs4,ft0
    80004306:	e3897e43          	fmadd.d	ft8,fs2,fs8,ft8
    8000430a:	8b7978c3          	fmadd.d	fa7,fs2,fs7,fa7
    8000430e:	83697843          	fmadd.d	fa6,fs2,fs6,fa6
    80004312:	3b5973c3          	fmadd.d	ft7,fs2,fs5,ft7
    80004316:	5b4975c3          	fmadd.d	fa1,fs2,fs4,fa1
    8000431a:	1b84f1c3          	fmadd.d	ft3,fs1,fs8,ft3
    8000431e:	3374f343          	fmadd.d	ft6,fs1,fs7,ft6
    80004322:	2b64f2c3          	fmadd.d	ft5,fs1,fs6,ft5
    80004326:	2354f243          	fmadd.d	ft4,fs1,fs5,ft4
    8000432a:	7344f743          	fmadd.d	fa4,fs1,fs4,fa4
    8000432e:	5386f543          	fmadd.d	fa0,fa3,fs8,fa0
    80004332:	1376f143          	fmadd.d	ft2,fa3,fs7,ft2
    80004336:	0b66f0c3          	fmadd.d	ft1,fa3,fs6,ft1
    8000433a:	6356f643          	fmadd.d	fa2,fa3,fs5,fa2
    8000433e:	7b46f7c3          	fmadd.d	fa5,fa3,fs4,fa5
    80004342:	97a6                	add	a5,a5,s1
    80004344:	f93760e3          	bltu	a4,s3,800042c4 <mm+0x43c>
    80004348:	01d8b027          	fsd	ft9,0(a7)
    8000434c:	0088b427          	fsd	fs0,8(a7)
    80004350:	01f8b827          	fsd	ft11,16(a7)
    80004354:	01e8bc27          	fsd	ft10,24(a7)
    80004358:	0208b027          	fsd	ft0,32(a7)
    8000435c:	01c83027          	fsd	ft8,0(a6)
    80004360:	01183427          	fsd	fa7,8(a6)
    80004364:	01083827          	fsd	fa6,16(a6)
    80004368:	00783c27          	fsd	ft7,24(a6)
    8000436c:	02b83027          	fsd	fa1,32(a6)
    80004370:	00353027          	fsd	ft3,0(a0)
    80004374:	00653427          	fsd	ft6,8(a0)
    80004378:	00553827          	fsd	ft5,16(a0)
    8000437c:	00453c27          	fsd	ft4,24(a0)
    80004380:	b118                	fsd	fa4,32(a0)
    80004382:	00a33027          	fsd	fa0,0(t1)
    80004386:	00233427          	fsd	ft2,8(t1)
    8000438a:	00133827          	fsd	ft1,16(t1)
    8000438e:	00c33c27          	fsd	fa2,24(t1)
    80004392:	02f33027          	fsd	fa5,32(t1)
    80004396:	0395                	addi	t2,t2,5
    80004398:	02888893          	addi	a7,a7,40
    8000439c:	02880813          	addi	a6,a6,40
    800043a0:	02850513          	addi	a0,a0,40
    800043a4:	02830313          	addi	t1,t1,40
    800043a8:	02828293          	addi	t0,t0,40
    800043ac:	bfa3e1e3          	bltu	t2,s10,80003f8e <mm+0x106>
    800043b0:	670a                	ld	a4,128(sp)
    800043b2:	67c2                	ld	a5,16(sp)
    800043b4:	6362                	ld	t1,24(sp)
    800043b6:	7862                	ld	a6,56(sp)
    800043b8:	00f708b3          	add	a7,a4,a5
    800043bc:	6706                	ld	a4,64(sp)
    800043be:	7786                	ld	a5,96(sp)
    800043c0:	7622                	ld	a2,40(sp)
    800043c2:	e03a                	sd	a4,0(sp)
    800043c4:	65e6                	ld	a1,88(sp)
    800043c6:	7742                	ld	a4,48(sp)
    800043c8:	0311                	addi	t1,t1,4
    800043ca:	86e6                	mv	a3,s9
    800043cc:	4511                	li	a0,4
    800043ce:	ec1a                	sd	t1,24(sp)
    800043d0:	c31fd0ef          	jal	ra,80002000 <mm_naive>
    800043d4:	77c6                	ld	a5,112(sp)
    800043d6:	7726                	ld	a4,104(sp)
    800043d8:	6362                	ld	t1,24(sp)
    800043da:	9cbe                	add	s9,s9,a5
    800043dc:	99be                	add	s3,s3,a5
    800043de:	993e                	add	s2,s2,a5
    800043e0:	67c2                	ld	a5,16(sp)
    800043e2:	97ba                	add	a5,a5,a4
    800043e4:	e83e                	sd	a5,16(sp)
    800043e6:	67c6                	ld	a5,80(sp)
    800043e8:	b8f365e3          	bltu	t1,a5,80003f72 <mm+0xea>
    800043ec:	66c6                	ld	a3,80(sp)
    800043ee:	77e6                	ld	a5,120(sp)
    800043f0:	652a                	ld	a0,136(sp)
    800043f2:	7862                	ld	a6,56(sp)
    800043f4:	02f688b3          	mul	a7,a3,a5
    800043f8:	8d15                	sub	a0,a0,a3
    800043fa:	6786                	ld	a5,64(sp)
    800043fc:	7742                	ld	a4,48(sp)
    800043fe:	7622                	ld	a2,40(sp)
    80004400:	f2be                	sd	a5,352(sp)
    80004402:	7582                	ld	a1,32(sp)
    80004404:	67a6                	ld	a5,72(sp)
    80004406:	60f6                	ld	ra,344(sp)
    80004408:	64b6                	ld	s1,328(sp)
    8000440a:	028686b3          	mul	a3,a3,s0
    8000440e:	646a                	ld	s0,152(sp)
    80004410:	6916                	ld	s2,320(sp)
    80004412:	79f2                	ld	s3,312(sp)
    80004414:	98a2                	add	a7,a7,s0
    80004416:	644a                	ld	s0,144(sp)
    80004418:	7a52                	ld	s4,304(sp)
    8000441a:	7ab2                	ld	s5,296(sp)
    8000441c:	7b12                	ld	s6,288(sp)
    8000441e:	6bf2                	ld	s7,280(sp)
    80004420:	96a2                	add	a3,a3,s0
    80004422:	6456                	ld	s0,336(sp)
    80004424:	6c52                	ld	s8,272(sp)
    80004426:	6cb2                	ld	s9,264(sp)
    80004428:	6d12                	ld	s10,256(sp)
    8000442a:	7dee                	ld	s11,248(sp)
    8000442c:	342e                	fld	fs0,232(sp)
    8000442e:	348e                	fld	fs1,224(sp)
    80004430:	296e                	fld	fs2,216(sp)
    80004432:	29ce                	fld	fs3,208(sp)
    80004434:	2a2e                	fld	fs4,200(sp)
    80004436:	2a8e                	fld	fs5,192(sp)
    80004438:	3b6a                	fld	fs6,184(sp)
    8000443a:	3bca                	fld	fs7,176(sp)
    8000443c:	3c2a                	fld	fs8,168(sp)
    8000443e:	3c8a                	fld	fs9,160(sp)
    80004440:	6135                	addi	sp,sp,352
    80004442:	bbffd06f          	j	80002000 <mm_naive>
    80004446:	6786                	ld	a5,64(sp)
    80004448:	6456                	ld	s0,336(sp)
    8000444a:	68ea                	ld	a7,152(sp)
    8000444c:	f2be                	sd	a5,352(sp)
    8000444e:	7862                	ld	a6,56(sp)
    80004450:	67a6                	ld	a5,72(sp)
    80004452:	7742                	ld	a4,48(sp)
    80004454:	66ca                	ld	a3,144(sp)
    80004456:	7622                	ld	a2,40(sp)
    80004458:	7582                	ld	a1,32(sp)
    8000445a:	652a                	ld	a0,136(sp)
    8000445c:	60f6                	ld	ra,344(sp)
    8000445e:	64b6                	ld	s1,328(sp)
    80004460:	6916                	ld	s2,320(sp)
    80004462:	79f2                	ld	s3,312(sp)
    80004464:	7a52                	ld	s4,304(sp)
    80004466:	7ab2                	ld	s5,296(sp)
    80004468:	7b12                	ld	s6,288(sp)
    8000446a:	6bf2                	ld	s7,280(sp)
    8000446c:	6c52                	ld	s8,272(sp)
    8000446e:	6cb2                	ld	s9,264(sp)
    80004470:	6d12                	ld	s10,256(sp)
    80004472:	7dee                	ld	s11,248(sp)
    80004474:	342e                	fld	fs0,232(sp)
    80004476:	348e                	fld	fs1,224(sp)
    80004478:	296e                	fld	fs2,216(sp)
    8000447a:	29ce                	fld	fs3,208(sp)
    8000447c:	2a2e                	fld	fs4,200(sp)
    8000447e:	2a8e                	fld	fs5,192(sp)
    80004480:	3b6a                	fld	fs6,184(sp)
    80004482:	3bca                	fld	fs7,176(sp)
    80004484:	3c2a                	fld	fs8,168(sp)
    80004486:	3c8a                	fld	fs9,160(sp)
    80004488:	6135                	addi	sp,sp,352
    8000448a:	cc7fd06f          	j	80002150 <mm_cb>

000000008000448e <barrier>:
    8000448e:	0ff0000f          	fence
    80004492:	00022703          	lw	a4,0(tp) # 0 <threadsense.2>
    80004496:	a5018693          	addi	a3,gp,-1456 # 800051d8 <count.1>
    8000449a:	4605                	li	a2,1
    8000449c:	00173713          	seqz	a4,a4
    800044a0:	00e22023          	sw	a4,0(tp) # 0 <threadsense.2>
    800044a4:	0f50000f          	fence	iorw,ow
    800044a8:	04c6a72f          	amoadd.w.aq	a4,a2,(a3)
    800044ac:	357d                	addiw	a0,a0,-1
    800044ae:	2701                	sext.w	a4,a4
    800044b0:	00e50c63          	beq	a0,a4,800044c8 <barrier+0x3a>
    800044b4:	00022683          	lw	a3,0(tp) # 0 <threadsense.2>
    800044b8:	a4c18713          	addi	a4,gp,-1460 # 800051d4 <sense.0>
    800044bc:	431c                	lw	a5,0(a4)
    800044be:	fed79fe3          	bne	a5,a3,800044bc <barrier+0x2e>
    800044c2:	0ff0000f          	fence
    800044c6:	8082                	ret
    800044c8:	00022783          	lw	a5,0(tp) # 0 <threadsense.2>
    800044cc:	a401a823          	sw	zero,-1456(gp) # 800051d8 <count.1>
    800044d0:	a4f1a623          	sw	a5,-1460(gp) # 800051d4 <sense.0>
    800044d4:	b7fd                	j	800044c2 <barrier+0x34>

00000000800044d6 <thread_entry>:
    800044d6:	7159                	addi	sp,sp,-112
    800044d8:	77fd                	lui	a5,0xfffff
    800044da:	f0a2                	sd	s0,96(sp)
    800044dc:	eca6                	sd	s1,88(sp)
    800044de:	e8ca                	sd	s2,80(sp)
    800044e0:	e4ce                	sd	s3,72(sp)
    800044e2:	e0d2                	sd	s4,64(sp)
    800044e4:	fc56                	sd	s5,56(sp)
    800044e6:	f486                	sd	ra,104(sp)
    800044e8:	f85a                	sd	s6,48(sp)
    800044ea:	f45e                	sd	s7,40(sp)
    800044ec:	f062                	sd	s8,32(sp)
    800044ee:	ec66                	sd	s9,24(sp)
    800044f0:	e86a                	sd	s10,16(sp)
    800044f2:	1880                	addi	s0,sp,112
    800044f4:	e0078713          	addi	a4,a5,-512 # ffffffffffffee00 <__global_pointer$+0xffffffff7fff9678>
    800044f8:	d4078793          	addi	a5,a5,-704
    800044fc:	913a                	add	sp,sp,a4
    800044fe:	01010913          	addi	s2,sp,16
    80004502:	913e                	add	sp,sp,a5
    80004504:	01010993          	addi	s3,sp,16
    80004508:	6805                	lui	a6,0x1
    8000450a:	913e                	add	sp,sp,a5
    8000450c:	37ab77b7          	lui	a5,0x37ab7
    80004510:	8aae                	mv	s5,a1
    80004512:	2c080813          	addi	a6,a6,704 # 12c0 <buflen.1+0x1240>
    80004516:	078a                	slli	a5,a5,0x2
    80004518:	4585                	li	a1,1
    8000451a:	8a2a                	mv	s4,a0
    8000451c:	0804                	addi	s1,sp,16
    8000451e:	0c090513          	addi	a0,s2,192
    80004522:	984a                	add	a6,a6,s2
    80004524:	eef78793          	addi	a5,a5,-273 # 37ab6eef <buflen.1+0x37ab6e6f>
    80004528:	15fa                	slli	a1,a1,0x3e
    8000452a:	f4050613          	addi	a2,a0,-192
    8000452e:	0017d693          	srli	a3,a5,0x1
    80004532:	00f6c733          	xor	a4,a3,a5
    80004536:	177a                	slli	a4,a4,0x3e
    80004538:	8f6d                	and	a4,a4,a1
    8000453a:	00d767b3          	or	a5,a4,a3
    8000453e:	0017d693          	srli	a3,a5,0x1
    80004542:	00f6c733          	xor	a4,a3,a5
    80004546:	177a                	slli	a4,a4,0x3e
    80004548:	8f6d                	and	a4,a4,a1
    8000454a:	d227f7d3          	fcvt.d.l	fa5,a5
    8000454e:	00d767b3          	or	a5,a4,a3
    80004552:	0017d693          	srli	a3,a5,0x1
    80004556:	00f6c733          	xor	a4,a3,a5
    8000455a:	177a                	slli	a4,a4,0x3e
    8000455c:	8f6d                	and	a4,a4,a1
    8000455e:	a21c                	fsd	fa5,0(a2)
    80004560:	d227f7d3          	fcvt.d.l	fa5,a5
    80004564:	00d767b3          	or	a5,a4,a3
    80004568:	0017d693          	srli	a3,a5,0x1
    8000456c:	00f6c733          	xor	a4,a3,a5
    80004570:	177a                	slli	a4,a4,0x3e
    80004572:	8f6d                	and	a4,a4,a1
    80004574:	a61c                	fsd	fa5,8(a2)
    80004576:	d227f7d3          	fcvt.d.l	fa5,a5
    8000457a:	00d767b3          	or	a5,a4,a3
    8000457e:	0017d693          	srli	a3,a5,0x1
    80004582:	00f6c733          	xor	a4,a3,a5
    80004586:	177a                	slli	a4,a4,0x3e
    80004588:	8f6d                	and	a4,a4,a1
    8000458a:	aa1c                	fsd	fa5,16(a2)
    8000458c:	d227f7d3          	fcvt.d.l	fa5,a5
    80004590:	00d767b3          	or	a5,a4,a3
    80004594:	0017d693          	srli	a3,a5,0x1
    80004598:	00f6c733          	xor	a4,a3,a5
    8000459c:	177a                	slli	a4,a4,0x3e
    8000459e:	8f6d                	and	a4,a4,a1
    800045a0:	ae1c                	fsd	fa5,24(a2)
    800045a2:	d227f7d3          	fcvt.d.l	fa5,a5
    800045a6:	00d767b3          	or	a5,a4,a3
    800045aa:	0017d693          	srli	a3,a5,0x1
    800045ae:	00f6c733          	xor	a4,a3,a5
    800045b2:	177a                	slli	a4,a4,0x3e
    800045b4:	8f6d                	and	a4,a4,a1
    800045b6:	b21c                	fsd	fa5,32(a2)
    800045b8:	d227f7d3          	fcvt.d.l	fa5,a5
    800045bc:	00d767b3          	or	a5,a4,a3
    800045c0:	0017d693          	srli	a3,a5,0x1
    800045c4:	00f6c733          	xor	a4,a3,a5
    800045c8:	b61c                	fsd	fa5,40(a2)
    800045ca:	177a                	slli	a4,a4,0x3e
    800045cc:	d227f7d3          	fcvt.d.l	fa5,a5
    800045d0:	8f6d                	and	a4,a4,a1
    800045d2:	00d767b3          	or	a5,a4,a3
    800045d6:	ba1c                	fsd	fa5,48(a2)
    800045d8:	d227f7d3          	fcvt.d.l	fa5,a5
    800045dc:	00860713          	addi	a4,a2,8
    800045e0:	04060613          	addi	a2,a2,64
    800045e4:	bb1c                	fsd	fa5,48(a4)
    800045e6:	f4a614e3          	bne	a2,a0,8000452e <thread_entry+0x58>
    800045ea:	0f870513          	addi	a0,a4,248
    800045ee:	f3051ee3          	bne	a0,a6,8000452a <thread_entry+0x54>
    800045f2:	6805                	lui	a6,0x1
    800045f4:	38880813          	addi	a6,a6,904 # 1388 <buflen.1+0x1308>
    800045f8:	4585                	li	a1,1
    800045fa:	0c898513          	addi	a0,s3,200
    800045fe:	984e                	add	a6,a6,s3
    80004600:	15fa                	slli	a1,a1,0x3e
    80004602:	0017d693          	srli	a3,a5,0x1
    80004606:	00f6c733          	xor	a4,a3,a5
    8000460a:	177a                	slli	a4,a4,0x3e
    8000460c:	8f6d                	and	a4,a4,a1
    8000460e:	00d767b3          	or	a5,a4,a3
    80004612:	d227f7d3          	fcvt.d.l	fa5,a5
    80004616:	f4050613          	addi	a2,a0,-192
    8000461a:	f2f53c27          	fsd	fa5,-200(a0)
    8000461e:	0017d693          	srli	a3,a5,0x1
    80004622:	00f6c733          	xor	a4,a3,a5
    80004626:	177a                	slli	a4,a4,0x3e
    80004628:	8f6d                	and	a4,a4,a1
    8000462a:	00d767b3          	or	a5,a4,a3
    8000462e:	0017d693          	srli	a3,a5,0x1
    80004632:	00f6c733          	xor	a4,a3,a5
    80004636:	177a                	slli	a4,a4,0x3e
    80004638:	8f6d                	and	a4,a4,a1
    8000463a:	d227f7d3          	fcvt.d.l	fa5,a5
    8000463e:	00d767b3          	or	a5,a4,a3
    80004642:	0017d693          	srli	a3,a5,0x1
    80004646:	00f6c733          	xor	a4,a3,a5
    8000464a:	177a                	slli	a4,a4,0x3e
    8000464c:	8f6d                	and	a4,a4,a1
    8000464e:	a21c                	fsd	fa5,0(a2)
    80004650:	d227f7d3          	fcvt.d.l	fa5,a5
    80004654:	00d767b3          	or	a5,a4,a3
    80004658:	0017d693          	srli	a3,a5,0x1
    8000465c:	00f6c733          	xor	a4,a3,a5
    80004660:	177a                	slli	a4,a4,0x3e
    80004662:	8f6d                	and	a4,a4,a1
    80004664:	a61c                	fsd	fa5,8(a2)
    80004666:	d227f7d3          	fcvt.d.l	fa5,a5
    8000466a:	00d767b3          	or	a5,a4,a3
    8000466e:	0017d693          	srli	a3,a5,0x1
    80004672:	00f6c733          	xor	a4,a3,a5
    80004676:	177a                	slli	a4,a4,0x3e
    80004678:	8f6d                	and	a4,a4,a1
    8000467a:	aa1c                	fsd	fa5,16(a2)
    8000467c:	d227f7d3          	fcvt.d.l	fa5,a5
    80004680:	00d767b3          	or	a5,a4,a3
    80004684:	0017d693          	srli	a3,a5,0x1
    80004688:	00f6c733          	xor	a4,a3,a5
    8000468c:	177a                	slli	a4,a4,0x3e
    8000468e:	8f6d                	and	a4,a4,a1
    80004690:	ae1c                	fsd	fa5,24(a2)
    80004692:	d227f7d3          	fcvt.d.l	fa5,a5
    80004696:	00d767b3          	or	a5,a4,a3
    8000469a:	0017d693          	srli	a3,a5,0x1
    8000469e:	00f6c733          	xor	a4,a3,a5
    800046a2:	177a                	slli	a4,a4,0x3e
    800046a4:	8f6d                	and	a4,a4,a1
    800046a6:	b21c                	fsd	fa5,32(a2)
    800046a8:	d227f7d3          	fcvt.d.l	fa5,a5
    800046ac:	00d767b3          	or	a5,a4,a3
    800046b0:	0017d693          	srli	a3,a5,0x1
    800046b4:	00f6c733          	xor	a4,a3,a5
    800046b8:	b61c                	fsd	fa5,40(a2)
    800046ba:	177a                	slli	a4,a4,0x3e
    800046bc:	d227f7d3          	fcvt.d.l	fa5,a5
    800046c0:	8f6d                	and	a4,a4,a1
    800046c2:	00d767b3          	or	a5,a4,a3
    800046c6:	ba1c                	fsd	fa5,48(a2)
    800046c8:	d227f7d3          	fcvt.d.l	fa5,a5
    800046cc:	00860713          	addi	a4,a2,8
    800046d0:	04060613          	addi	a2,a2,64
    800046d4:	bb1c                	fsd	fa5,48(a4)
    800046d6:	f4c514e3          	bne	a0,a2,8000461e <thread_entry+0x148>
    800046da:	10070513          	addi	a0,a4,256
    800046de:	f2a812e3          	bne	a6,a0,80004602 <thread_entry+0x12c>
    800046e2:	6605                	lui	a2,0x1
    800046e4:	2c060613          	addi	a2,a2,704 # 12c0 <buflen.1+0x1240>
    800046e8:	4581                	li	a1,0
    800046ea:	8526                	mv	a0,s1
    800046ec:	6ae000ef          	jal	ra,80004d9a <memset>
    800046f0:	4b21                	li	s6,8
    800046f2:	4d65                	li	s10,25
    800046f4:	b0202bf3          	csrr	s7,minstret
    800046f8:	b0002cf3          	csrr	s9,mcycle
    800046fc:	4865                	li	a6,25
    800046fe:	e06a                	sd	s10,0(sp)
    80004700:	88a6                	mv	a7,s1
    80004702:	87ce                	mv	a5,s3
    80004704:	4761                	li	a4,24
    80004706:	86ca                	mv	a3,s2
    80004708:	4661                	li	a2,24
    8000470a:	45e5                	li	a1,25
    8000470c:	4561                	li	a0,24
    8000470e:	f7aff0ef          	jal	ra,80003e88 <mm>
    80004712:	b0202c73          	csrr	s8,minstret
    80004716:	b00027f3          	csrr	a5,mcycle
    8000471a:	3b7d                	addiw	s6,s6,-1
    8000471c:	fc0b1ce3          	bnez	s6,800046f4 <thread_entry+0x21e>
    80004720:	41978cb3          	sub	s9,a5,s9
    80004724:	0ff0000f          	fence
    80004728:	47e1                	li	a5,24
    8000472a:	48e1                	li	a7,24
    8000472c:	4865                	li	a6,25
    8000472e:	4719                	li	a4,6
    80004730:	4695                	li	a3,5
    80004732:	4611                	li	a2,4
    80004734:	85d2                	mv	a1,s4
    80004736:	00001517          	auipc	a0,0x1
    8000473a:	86250513          	addi	a0,a0,-1950 # 80004f98 <main+0x2c>
    8000473e:	5a8000ef          	jal	ra,80004ce6 <printf>
    80004742:	417c063b          	subw	a2,s8,s7
    80004746:	85d2                	mv	a1,s4
    80004748:	00001517          	auipc	a0,0x1
    8000474c:	88050513          	addi	a0,a0,-1920 # 80004fc8 <main+0x5c>
    80004750:	596000ef          	jal	ra,80004ce6 <printf>
    80004754:	000c861b          	sext.w	a2,s9
    80004758:	85d2                	mv	a1,s4
    8000475a:	00001517          	auipc	a0,0x1
    8000475e:	88650513          	addi	a0,a0,-1914 # 80004fe0 <main+0x74>
    80004762:	584000ef          	jal	ra,80004ce6 <printf>
    80004766:	661d                	lui	a2,0x7
    80004768:	08060613          	addi	a2,a2,128 # 7080 <buflen.1+0x7000>
    8000476c:	85d2                	mv	a1,s4
    8000476e:	00001517          	auipc	a0,0x1
    80004772:	88250513          	addi	a0,a0,-1918 # 80004ff0 <main+0x84>
    80004776:	570000ef          	jal	ra,80004ce6 <printf>
    8000477a:	01b77637          	lui	a2,0x1b77
    8000477e:	40060613          	addi	a2,a2,1024 # 1b77400 <buflen.1+0x1b77380>
    80004782:	03965633          	divu	a2,a2,s9
    80004786:	85d2                	mv	a1,s4
    80004788:	00001517          	auipc	a0,0x1
    8000478c:	87850513          	addi	a0,a0,-1928 # 80005000 <main+0x94>
    80004790:	556000ef          	jal	ra,80004ce6 <printf>
    80004794:	6f05                	lui	t5,0x1
    80004796:	7e7d                	lui	t3,0xfffff
    80004798:	4601                	li	a2,0
    8000479a:	00000797          	auipc	a5,0x0
    8000479e:	7ee7b507          	fld	fa0,2030(a5) # 80004f88 <main+0x1c>
    800047a2:	00000797          	auipc	a5,0x0
    800047a6:	7ee7b587          	fld	fa1,2030(a5) # 80004f90 <main+0x24>
    800047aa:	2c0f0f13          	addi	t5,t5,704 # 12c0 <buflen.1+0x1240>
    800047ae:	d40e0e13          	addi	t3,t3,-704 # ffffffffffffed40 <__global_pointer$+0xffffffff7fff95b8>
    800047b2:	4ee5                	li	t4,25
    800047b4:	4fe1                	li	t6,24
    800047b6:	00161313          	slli	t1,a2,0x1
    800047ba:	9332                	add	t1,t1,a2
    800047bc:	031a                	slli	t1,t1,0x6
    800047be:	01e98833          	add	a6,s3,t5
    800047c2:	934a                	add	t1,t1,s2
    800047c4:	88a6                	mv	a7,s1
    800047c6:	4681                	li	a3,0
    800047c8:	f20007d3          	fmv.d.x	fa5,zero
    800047cc:	01c805b3          	add	a1,a6,t3
    800047d0:	851a                	mv	a0,t1
    800047d2:	2114                	fld	fa3,0(a0)
    800047d4:	2198                	fld	fa4,0(a1)
    800047d6:	00850713          	addi	a4,a0,8
    800047da:	0c858793          	addi	a5,a1,200
    800047de:	7ae6f7c3          	fmadd.d	fa5,fa3,fa4,fa5
    800047e2:	2514                	fld	fa3,8(a0)
    800047e4:	25f8                	fld	fa4,200(a1)
    800047e6:	04050513          	addi	a0,a0,64
    800047ea:	7ae6f7c3          	fmadd.d	fa5,fa3,fa4,fa5
    800047ee:	1905b707          	fld	fa4,400(a1)
    800047f2:	fd053687          	fld	fa3,-48(a0)
    800047f6:	57878593          	addi	a1,a5,1400
    800047fa:	7ae6f7c3          	fmadd.d	fa5,fa3,fa4,fa5
    800047fe:	2b14                	fld	fa3,16(a4)
    80004800:	1907b707          	fld	fa4,400(a5)
    80004804:	7ae6f7c3          	fmadd.d	fa5,fa3,fa4,fa5
    80004808:	2f14                	fld	fa3,24(a4)
    8000480a:	2587b707          	fld	fa4,600(a5)
    8000480e:	7ae6f7c3          	fmadd.d	fa5,fa3,fa4,fa5
    80004812:	3314                	fld	fa3,32(a4)
    80004814:	3207b707          	fld	fa4,800(a5)
    80004818:	7ae6f7c3          	fmadd.d	fa5,fa3,fa4,fa5
    8000481c:	3714                	fld	fa3,40(a4)
    8000481e:	3e87b707          	fld	fa4,1000(a5)
    80004822:	7ae6f7c3          	fmadd.d	fa5,fa3,fa4,fa5
    80004826:	3b14                	fld	fa3,48(a4)
    80004828:	4b07b707          	fld	fa4,1200(a5)
    8000482c:	7ae6f7c3          	fmadd.d	fa5,fa3,fa4,fa5
    80004830:	fab811e3          	bne	a6,a1,800047d2 <thread_entry+0x2fc>
    80004834:	12a7f7d3          	fmul.d	fa5,fa5,fa0
    80004838:	0008b607          	fld	fa2,0(a7)
    8000483c:	12b7f753          	fmul.d	fa4,fa5,fa1
    80004840:	0af676d3          	fsub.d	fa3,fa2,fa5
    80004844:	22e72753          	fabs.d	fa4,fa4
    80004848:	22d6a6d3          	fabs.d	fa3,fa3
    8000484c:	a2d71753          	flt.d	a4,fa4,fa3
    80004850:	e315                	bnez	a4,80004874 <thread_entry+0x39e>
    80004852:	0685                	addi	a3,a3,1
    80004854:	08a1                	addi	a7,a7,8
    80004856:	58078813          	addi	a6,a5,1408
    8000485a:	f7d697e3          	bne	a3,t4,800047c8 <thread_entry+0x2f2>
    8000485e:	0605                	addi	a2,a2,1
    80004860:	0c848493          	addi	s1,s1,200
    80004864:	f5f619e3          	bne	a2,t6,800047b6 <thread_entry+0x2e0>
    80004868:	8556                	mv	a0,s5
    8000486a:	c25ff0ef          	jal	ra,8000448e <barrier>
    8000486e:	4501                	li	a0,0
    80004870:	3c2000ef          	jal	ra,80004c32 <exit>
    80004874:	e20787d3          	fmv.x.d	a5,fa5
    80004878:	e2060753          	fmv.x.d	a4,fa2
    8000487c:	85d2                	mv	a1,s4
    8000487e:	00000517          	auipc	a0,0x0
    80004882:	79a50513          	addi	a0,a0,1946 # 80005018 <main+0xac>
    80004886:	460000ef          	jal	ra,80004ce6 <printf>
    8000488a:	4505                	li	a0,1
    8000488c:	3a6000ef          	jal	ra,80004c32 <exit>

0000000080004890 <vprintfmt>:
    80004890:	710d                	addi	sp,sp,-352
    80004892:	eaa2                	sd	s0,336(sp)
    80004894:	e6a6                	sd	s1,328(sp)
    80004896:	e2ca                	sd	s2,320(sp)
    80004898:	f656                	sd	s5,296(sp)
    8000489a:	f25a                	sd	s6,288(sp)
    8000489c:	ee5e                	sd	s7,280(sp)
    8000489e:	ee86                	sd	ra,344(sp)
    800048a0:	fe4e                	sd	s3,312(sp)
    800048a2:	fa52                	sd	s4,304(sp)
    800048a4:	ea62                	sd	s8,272(sp)
    800048a6:	e666                	sd	s9,264(sp)
    800048a8:	e26a                	sd	s10,256(sp)
    800048aa:	892a                	mv	s2,a0
    800048ac:	84ae                	mv	s1,a1
    800048ae:	8432                	mv	s0,a2
    800048b0:	8b36                	mv	s6,a3
    800048b2:	02500a93          	li	s5,37
    800048b6:	8f418b93          	addi	s7,gp,-1804 # 8000507c <main+0x110>
    800048ba:	a029                	j	800048c4 <vprintfmt+0x34>
    800048bc:	c131                	beqz	a0,80004900 <vprintfmt+0x70>
    800048be:	85a6                	mv	a1,s1
    800048c0:	0405                	addi	s0,s0,1
    800048c2:	9902                	jalr	s2
    800048c4:	00044503          	lbu	a0,0(s0)
    800048c8:	ff551ae3          	bne	a0,s5,800048bc <vprintfmt+0x2c>
    800048cc:	00144683          	lbu	a3,1(s0)
    800048d0:	00140a13          	addi	s4,s0,1
    800048d4:	8752                	mv	a4,s4
    800048d6:	02000c93          	li	s9,32
    800048da:	59fd                	li	s3,-1
    800048dc:	5d7d                	li	s10,-1
    800048de:	4501                	li	a0,0
    800048e0:	05500613          	li	a2,85
    800048e4:	45a5                	li	a1,9
    800048e6:	fdd6879b          	addiw	a5,a3,-35
    800048ea:	0ff7f793          	zext.b	a5,a5
    800048ee:	00170413          	addi	s0,a4,1
    800048f2:	04f66163          	bltu	a2,a5,80004934 <vprintfmt+0xa4>
    800048f6:	078a                	slli	a5,a5,0x2
    800048f8:	97de                	add	a5,a5,s7
    800048fa:	439c                	lw	a5,0(a5)
    800048fc:	97de                	add	a5,a5,s7
    800048fe:	8782                	jr	a5
    80004900:	60f6                	ld	ra,344(sp)
    80004902:	6456                	ld	s0,336(sp)
    80004904:	64b6                	ld	s1,328(sp)
    80004906:	6916                	ld	s2,320(sp)
    80004908:	79f2                	ld	s3,312(sp)
    8000490a:	7a52                	ld	s4,304(sp)
    8000490c:	7ab2                	ld	s5,296(sp)
    8000490e:	7b12                	ld	s6,288(sp)
    80004910:	6bf2                	ld	s7,280(sp)
    80004912:	6c52                	ld	s8,272(sp)
    80004914:	6cb2                	ld	s9,264(sp)
    80004916:	6d12                	ld	s10,256(sp)
    80004918:	6135                	addi	sp,sp,352
    8000491a:	8082                	ret
    8000491c:	8cb6                	mv	s9,a3
    8000491e:	00174683          	lbu	a3,1(a4)
    80004922:	8722                	mv	a4,s0
    80004924:	00170413          	addi	s0,a4,1
    80004928:	fdd6879b          	addiw	a5,a3,-35
    8000492c:	0ff7f793          	zext.b	a5,a5
    80004930:	fcf673e3          	bgeu	a2,a5,800048f6 <vprintfmt+0x66>
    80004934:	85a6                	mv	a1,s1
    80004936:	02500513          	li	a0,37
    8000493a:	9902                	jalr	s2
    8000493c:	8452                	mv	s0,s4
    8000493e:	b759                	j	800048c4 <vprintfmt+0x34>
    80004940:	fd06899b          	addiw	s3,a3,-48
    80004944:	00174683          	lbu	a3,1(a4)
    80004948:	8722                	mv	a4,s0
    8000494a:	fd06879b          	addiw	a5,a3,-48
    8000494e:	0006881b          	sext.w	a6,a3
    80004952:	02f5e563          	bltu	a1,a5,8000497c <vprintfmt+0xec>
    80004956:	00174683          	lbu	a3,1(a4)
    8000495a:	0029979b          	slliw	a5,s3,0x2
    8000495e:	013787bb          	addw	a5,a5,s3
    80004962:	0017979b          	slliw	a5,a5,0x1
    80004966:	010787bb          	addw	a5,a5,a6
    8000496a:	fd06889b          	addiw	a7,a3,-48
    8000496e:	0705                	addi	a4,a4,1
    80004970:	fd07899b          	addiw	s3,a5,-48
    80004974:	0006881b          	sext.w	a6,a3
    80004978:	fd15ffe3          	bgeu	a1,a7,80004956 <vprintfmt+0xc6>
    8000497c:	f60d55e3          	bgez	s10,800048e6 <vprintfmt+0x56>
    80004980:	8d4e                	mv	s10,s3
    80004982:	59fd                	li	s3,-1
    80004984:	b78d                	j	800048e6 <vprintfmt+0x56>
    80004986:	00174683          	lbu	a3,1(a4)
    8000498a:	8722                	mv	a4,s0
    8000498c:	bfa9                	j	800048e6 <vprintfmt+0x56>
    8000498e:	85a6                	mv	a1,s1
    80004990:	02500513          	li	a0,37
    80004994:	9902                	jalr	s2
    80004996:	b73d                	j	800048c4 <vprintfmt+0x34>
    80004998:	000b2983          	lw	s3,0(s6)
    8000499c:	00174683          	lbu	a3,1(a4)
    800049a0:	0b21                	addi	s6,s6,8
    800049a2:	8722                	mv	a4,s0
    800049a4:	bfe1                	j	8000497c <vprintfmt+0xec>
    800049a6:	03000513          	li	a0,48
    800049aa:	85a6                	mv	a1,s1
    800049ac:	9902                	jalr	s2
    800049ae:	85a6                	mv	a1,s1
    800049b0:	07800513          	li	a0,120
    800049b4:	9902                	jalr	s2
    800049b6:	4741                	li	a4,16
    800049b8:	008b0693          	addi	a3,s6,8
    800049bc:	000b3783          	ld	a5,0(s6)
    800049c0:	8b36                	mv	s6,a3
    800049c2:	02e7f9b3          	remu	s3,a5,a4
    800049c6:	2c81                	sext.w	s9,s9
    800049c8:	0054                	addi	a3,sp,4
    800049ca:	4c05                	li	s8,1
    800049cc:	c04e                	sw	s3,0(sp)
    800049ce:	14e7e463          	bltu	a5,a4,80004b16 <vprintfmt+0x286>
    800049d2:	02e7d7b3          	divu	a5,a5,a4
    800049d6:	0691                	addi	a3,a3,4
    800049d8:	8a62                	mv	s4,s8
    800049da:	2c05                	addiw	s8,s8,1
    800049dc:	02e7f9b3          	remu	s3,a5,a4
    800049e0:	ff36ae23          	sw	s3,-4(a3)
    800049e4:	fee7f7e3          	bgeu	a5,a4,800049d2 <vprintfmt+0x142>
    800049e8:	01ac5963          	bge	s8,s10,800049fa <vprintfmt+0x16a>
    800049ec:	2d01                	sext.w	s10,s10
    800049ee:	3d7d                	addiw	s10,s10,-1
    800049f0:	85a6                	mv	a1,s1
    800049f2:	8566                	mv	a0,s9
    800049f4:	9902                	jalr	s2
    800049f6:	ffac4ce3          	blt	s8,s10,800049ee <vprintfmt+0x15e>
    800049fa:	0a0a                	slli	s4,s4,0x2
    800049fc:	9a0a                	add	s4,s4,sp
    800049fe:	8c8a                	mv	s9,sp
    80004a00:	4c25                	li	s8,9
    80004a02:	a021                	j	80004a0a <vprintfmt+0x17a>
    80004a04:	ffca2983          	lw	s3,-4(s4)
    80004a08:	1a71                	addi	s4,s4,-4
    80004a0a:	05700513          	li	a0,87
    80004a0e:	013c6463          	bltu	s8,s3,80004a16 <vprintfmt+0x186>
    80004a12:	03000513          	li	a0,48
    80004a16:	85a6                	mv	a1,s1
    80004a18:	0135053b          	addw	a0,a0,s3
    80004a1c:	9902                	jalr	s2
    80004a1e:	ff9a13e3          	bne	s4,s9,80004a04 <vprintfmt+0x174>
    80004a22:	b54d                	j	800048c4 <vprintfmt+0x34>
    80004a24:	4785                	li	a5,1
    80004a26:	008b0a13          	addi	s4,s6,8
    80004a2a:	00a7c363          	blt	a5,a0,80004a30 <vprintfmt+0x1a0>
    80004a2e:	c965                	beqz	a0,80004b1e <vprintfmt+0x28e>
    80004a30:	000b3983          	ld	s3,0(s6)
    80004a34:	0e09cc63          	bltz	s3,80004b2c <vprintfmt+0x29c>
    80004a38:	87ce                	mv	a5,s3
    80004a3a:	8b52                	mv	s6,s4
    80004a3c:	4729                	li	a4,10
    80004a3e:	b751                	j	800049c2 <vprintfmt+0x132>
    80004a40:	00174683          	lbu	a3,1(a4)
    80004a44:	2505                	addiw	a0,a0,1
    80004a46:	8722                	mv	a4,s0
    80004a48:	bd79                	j	800048e6 <vprintfmt+0x56>
    80004a4a:	4741                	li	a4,16
    80004a4c:	4785                	li	a5,1
    80004a4e:	008b0693          	addi	a3,s6,8
    80004a52:	f6a7c5e3          	blt	a5,a0,800049bc <vprintfmt+0x12c>
    80004a56:	f13d                	bnez	a0,800049bc <vprintfmt+0x12c>
    80004a58:	000b6783          	lwu	a5,0(s6)
    80004a5c:	8b36                	mv	s6,a3
    80004a5e:	b795                	j	800049c2 <vprintfmt+0x132>
    80004a60:	000b3a03          	ld	s4,0(s6)
    80004a64:	0b21                	addi	s6,s6,8
    80004a66:	0c0a0c63          	beqz	s4,80004b3e <vprintfmt+0x2ae>
    80004a6a:	07a05f63          	blez	s10,80004ae8 <vprintfmt+0x258>
    80004a6e:	02d00793          	li	a5,45
    80004a72:	04fc9063          	bne	s9,a5,80004ab2 <vprintfmt+0x222>
    80004a76:	000a4503          	lbu	a0,0(s4)
    80004a7a:	c105                	beqz	a0,80004a9a <vprintfmt+0x20a>
    80004a7c:	5c7d                	li	s8,-1
    80004a7e:	0009c563          	bltz	s3,80004a88 <vprintfmt+0x1f8>
    80004a82:	39fd                	addiw	s3,s3,-1
    80004a84:	01898963          	beq	s3,s8,80004a96 <vprintfmt+0x206>
    80004a88:	85a6                	mv	a1,s1
    80004a8a:	0a05                	addi	s4,s4,1
    80004a8c:	9902                	jalr	s2
    80004a8e:	000a4503          	lbu	a0,0(s4)
    80004a92:	3d7d                	addiw	s10,s10,-1
    80004a94:	f56d                	bnez	a0,80004a7e <vprintfmt+0x1ee>
    80004a96:	e3a057e3          	blez	s10,800048c4 <vprintfmt+0x34>
    80004a9a:	3d7d                	addiw	s10,s10,-1
    80004a9c:	85a6                	mv	a1,s1
    80004a9e:	02000513          	li	a0,32
    80004aa2:	9902                	jalr	s2
    80004aa4:	fe0d1be3          	bnez	s10,80004a9a <vprintfmt+0x20a>
    80004aa8:	bd31                	j	800048c4 <vprintfmt+0x34>
    80004aaa:	00000a17          	auipc	s4,0x0
    80004aae:	58ea0a13          	addi	s4,s4,1422 # 80005038 <main+0xcc>
    80004ab2:	000d061b          	sext.w	a2,s10
    80004ab6:	87d2                	mv	a5,s4
    80004ab8:	013a06b3          	add	a3,s4,s3
    80004abc:	00099663          	bnez	s3,80004ac8 <vprintfmt+0x238>
    80004ac0:	a829                	j	80004ada <vprintfmt+0x24a>
    80004ac2:	0785                	addi	a5,a5,1
    80004ac4:	00d78563          	beq	a5,a3,80004ace <vprintfmt+0x23e>
    80004ac8:	0007c703          	lbu	a4,0(a5)
    80004acc:	fb7d                	bnez	a4,80004ac2 <vprintfmt+0x232>
    80004ace:	414787b3          	sub	a5,a5,s4
    80004ad2:	40f60d3b          	subw	s10,a2,a5
    80004ad6:	01a05963          	blez	s10,80004ae8 <vprintfmt+0x258>
    80004ada:	2c81                	sext.w	s9,s9
    80004adc:	3d7d                	addiw	s10,s10,-1
    80004ade:	85a6                	mv	a1,s1
    80004ae0:	8566                	mv	a0,s9
    80004ae2:	9902                	jalr	s2
    80004ae4:	fe0d1ce3          	bnez	s10,80004adc <vprintfmt+0x24c>
    80004ae8:	000a4503          	lbu	a0,0(s4)
    80004aec:	dc050ce3          	beqz	a0,800048c4 <vprintfmt+0x34>
    80004af0:	5c7d                	li	s8,-1
    80004af2:	b771                	j	80004a7e <vprintfmt+0x1ee>
    80004af4:	fffd4793          	not	a5,s10
    80004af8:	97fd                	srai	a5,a5,0x3f
    80004afa:	00fd77b3          	and	a5,s10,a5
    80004afe:	00174683          	lbu	a3,1(a4)
    80004b02:	00078d1b          	sext.w	s10,a5
    80004b06:	8722                	mv	a4,s0
    80004b08:	bbf9                	j	800048e6 <vprintfmt+0x56>
    80004b0a:	000b2503          	lw	a0,0(s6)
    80004b0e:	85a6                	mv	a1,s1
    80004b10:	0b21                	addi	s6,s6,8
    80004b12:	9902                	jalr	s2
    80004b14:	bb45                	j	800048c4 <vprintfmt+0x34>
    80004b16:	4a01                	li	s4,0
    80004b18:	edac4ae3          	blt	s8,s10,800049ec <vprintfmt+0x15c>
    80004b1c:	bdf9                	j	800049fa <vprintfmt+0x16a>
    80004b1e:	000b2983          	lw	s3,0(s6)
    80004b22:	bf09                	j	80004a34 <vprintfmt+0x1a4>
    80004b24:	4721                	li	a4,8
    80004b26:	b71d                	j	80004a4c <vprintfmt+0x1bc>
    80004b28:	4729                	li	a4,10
    80004b2a:	b70d                	j	80004a4c <vprintfmt+0x1bc>
    80004b2c:	85a6                	mv	a1,s1
    80004b2e:	02d00513          	li	a0,45
    80004b32:	9902                	jalr	s2
    80004b34:	8b52                	mv	s6,s4
    80004b36:	413007b3          	neg	a5,s3
    80004b3a:	4729                	li	a4,10
    80004b3c:	b559                	j	800049c2 <vprintfmt+0x132>
    80004b3e:	01a05663          	blez	s10,80004b4a <vprintfmt+0x2ba>
    80004b42:	02d00793          	li	a5,45
    80004b46:	f6fc92e3          	bne	s9,a5,80004aaa <vprintfmt+0x21a>
    80004b4a:	00000a17          	auipc	s4,0x0
    80004b4e:	4eea0a13          	addi	s4,s4,1262 # 80005038 <main+0xcc>
    80004b52:	02800513          	li	a0,40
    80004b56:	5c7d                	li	s8,-1
    80004b58:	b71d                	j	80004a7e <vprintfmt+0x1ee>

0000000080004b5a <sprintf_putch.0>:
    80004b5a:	619c                	ld	a5,0(a1)
    80004b5c:	00a78023          	sb	a0,0(a5)
    80004b60:	619c                	ld	a5,0(a1)
    80004b62:	0785                	addi	a5,a5,1
    80004b64:	e19c                	sd	a5,0(a1)
    80004b66:	8082                	ret

0000000080004b68 <putchar>:
    80004b68:	08022803          	lw	a6,128(tp) # 80 <buflen.1>
    80004b6c:	04020793          	addi	a5,tp,64 # 40 <buf.2>
    80004b70:	97c2                	add	a5,a5,a6
    80004b72:	7159                	addi	sp,sp,-112
    80004b74:	0018069b          	addiw	a3,a6,1
    80004b78:	08d22023          	sw	a3,128(tp) # 80 <buflen.1>
    80004b7c:	00a78023          	sb	a0,0(a5)
    80004b80:	03f10713          	addi	a4,sp,63
    80004b84:	47a9                	li	a5,10
    80004b86:	fc077713          	andi	a4,a4,-64
    80004b8a:	00f50963          	beq	a0,a5,80004b9c <putchar+0x34>
    80004b8e:	04000793          	li	a5,64
    80004b92:	00f68563          	beq	a3,a5,80004b9c <putchar+0x34>
    80004b96:	4501                	li	a0,0
    80004b98:	6165                	addi	sp,sp,112
    80004b9a:	8082                	ret
    80004b9c:	04000793          	li	a5,64
    80004ba0:	e31c                	sd	a5,0(a4)
    80004ba2:	4785                	li	a5,1
    80004ba4:	e71c                	sd	a5,8(a4)
    80004ba6:	04020613          	addi	a2,tp,64 # 40 <buf.2>
    80004baa:	eb10                	sd	a2,16(a4)
    80004bac:	ef14                	sd	a3,24(a4)
    80004bae:	0ff0000f          	fence
    80004bb2:	ffffc697          	auipc	a3,0xffffc
    80004bb6:	48e68693          	addi	a3,a3,1166 # 80001040 <fromhost>
    80004bba:	ffffc797          	auipc	a5,0xffffc
    80004bbe:	44e7b323          	sd	a4,1094(a5) # 80001000 <tohost>
    80004bc2:	629c                	ld	a5,0(a3)
    80004bc4:	dffd                	beqz	a5,80004bc2 <putchar+0x5a>
    80004bc6:	ffffc797          	auipc	a5,0xffffc
    80004bca:	4607bd23          	sd	zero,1146(a5) # 80001040 <fromhost>
    80004bce:	0ff0000f          	fence
    80004bd2:	08022023          	sw	zero,128(tp) # 80 <buflen.1>
    80004bd6:	631c                	ld	a5,0(a4)
    80004bd8:	4501                	li	a0,0
    80004bda:	6165                	addi	sp,sp,112
    80004bdc:	8082                	ret

0000000080004bde <setStats>:
    80004bde:	b0002773          	csrr	a4,mcycle
    80004be2:	a5818793          	addi	a5,gp,-1448 # 800051e0 <counters>
    80004be6:	e901                	bnez	a0,80004bf6 <setStats+0x18>
    80004be8:	6394                	ld	a3,0(a5)
    80004bea:	00000617          	auipc	a2,0x0
    80004bee:	45660613          	addi	a2,a2,1110 # 80005040 <main+0xd4>
    80004bf2:	eb90                	sd	a2,16(a5)
    80004bf4:	8f15                	sub	a4,a4,a3
    80004bf6:	e398                	sd	a4,0(a5)
    80004bf8:	b0202773          	csrr	a4,minstret
    80004bfc:	e901                	bnez	a0,80004c0c <setStats+0x2e>
    80004bfe:	6794                	ld	a3,8(a5)
    80004c00:	00000617          	auipc	a2,0x0
    80004c04:	44860613          	addi	a2,a2,1096 # 80005048 <main+0xdc>
    80004c08:	ef90                	sd	a2,24(a5)
    80004c0a:	8f15                	sub	a4,a4,a3
    80004c0c:	e798                	sd	a4,8(a5)
    80004c0e:	8082                	ret

0000000080004c10 <tohost_exit>:
    80004c10:	00151793          	slli	a5,a0,0x1
    80004c14:	0017e793          	ori	a5,a5,1
    80004c18:	ffffc717          	auipc	a4,0xffffc
    80004c1c:	3ef73423          	sd	a5,1000(a4) # 80001000 <tohost>
    80004c20:	a001                	j	80004c20 <tohost_exit+0x10>

0000000080004c22 <handle_trap>:
    80004c22:	6785                	lui	a5,0x1
    80004c24:	a7378793          	addi	a5,a5,-1421 # a73 <buflen.1+0x9f3>
    80004c28:	ffffc717          	auipc	a4,0xffffc
    80004c2c:	3cf73c23          	sd	a5,984(a4) # 80001000 <tohost>
    80004c30:	a001                	j	80004c30 <handle_trap+0xe>

0000000080004c32 <exit>:
    80004c32:	1141                	addi	sp,sp,-16
    80004c34:	e406                	sd	ra,8(sp)
    80004c36:	fdbff0ef          	jal	ra,80004c10 <tohost_exit>

0000000080004c3a <abort>:
    80004c3a:	10d00793          	li	a5,269
    80004c3e:	ffffc717          	auipc	a4,0xffffc
    80004c42:	3cf73123          	sd	a5,962(a4) # 80001000 <tohost>
    80004c46:	a001                	j	80004c46 <abort+0xc>

0000000080004c48 <printstr>:
    80004c48:	00054783          	lbu	a5,0(a0)
    80004c4c:	7159                	addi	sp,sp,-112
    80004c4e:	03f10693          	addi	a3,sp,63
    80004c52:	fc06f693          	andi	a3,a3,-64
    80004c56:	c3b9                	beqz	a5,80004c9c <printstr+0x54>
    80004c58:	87aa                	mv	a5,a0
    80004c5a:	0017c703          	lbu	a4,1(a5)
    80004c5e:	0785                	addi	a5,a5,1
    80004c60:	ff6d                	bnez	a4,80004c5a <printstr+0x12>
    80004c62:	8f89                	sub	a5,a5,a0
    80004c64:	04000713          	li	a4,64
    80004c68:	e298                	sd	a4,0(a3)
    80004c6a:	4705                	li	a4,1
    80004c6c:	e698                	sd	a4,8(a3)
    80004c6e:	ea88                	sd	a0,16(a3)
    80004c70:	ee9c                	sd	a5,24(a3)
    80004c72:	0ff0000f          	fence
    80004c76:	ffffc717          	auipc	a4,0xffffc
    80004c7a:	3ca70713          	addi	a4,a4,970 # 80001040 <fromhost>
    80004c7e:	ffffc797          	auipc	a5,0xffffc
    80004c82:	38d7b123          	sd	a3,898(a5) # 80001000 <tohost>
    80004c86:	631c                	ld	a5,0(a4)
    80004c88:	dffd                	beqz	a5,80004c86 <printstr+0x3e>
    80004c8a:	ffffc797          	auipc	a5,0xffffc
    80004c8e:	3a07bb23          	sd	zero,950(a5) # 80001040 <fromhost>
    80004c92:	0ff0000f          	fence
    80004c96:	629c                	ld	a5,0(a3)
    80004c98:	6165                	addi	sp,sp,112
    80004c9a:	8082                	ret
    80004c9c:	4781                	li	a5,0
    80004c9e:	b7d9                	j	80004c64 <printstr+0x1c>
    80004ca0:	e101                	bnez	a0,80004ca0 <printstr+0x58>
    80004ca2:	8082                	ret

0000000080004ca4 <printhex>:
    80004ca4:	7179                	addi	sp,sp,-48
    80004ca6:	87aa                	mv	a5,a0
    80004ca8:	f406                	sd	ra,40(sp)
    80004caa:	0028                	addi	a0,sp,8
    80004cac:	01710613          	addi	a2,sp,23
    80004cb0:	4825                	li	a6,9
    80004cb2:	a011                	j	80004cb6 <printhex+0x12>
    80004cb4:	863a                	mv	a2,a4
    80004cb6:	00f7f693          	andi	a3,a5,15
    80004cba:	8736                	mv	a4,a3
    80004cbc:	03000593          	li	a1,48
    80004cc0:	00d87463          	bgeu	a6,a3,80004cc8 <printhex+0x24>
    80004cc4:	05700593          	li	a1,87
    80004cc8:	9f2d                	addw	a4,a4,a1
    80004cca:	00e60023          	sb	a4,0(a2)
    80004cce:	8391                	srli	a5,a5,0x4
    80004cd0:	fff60713          	addi	a4,a2,-1
    80004cd4:	fec510e3          	bne	a0,a2,80004cb4 <printhex+0x10>
    80004cd8:	00010c23          	sb	zero,24(sp)
    80004cdc:	f6dff0ef          	jal	ra,80004c48 <printstr>
    80004ce0:	70a2                	ld	ra,40(sp)
    80004ce2:	6145                	addi	sp,sp,48
    80004ce4:	8082                	ret

0000000080004ce6 <printf>:
    80004ce6:	711d                	addi	sp,sp,-96
    80004ce8:	02810313          	addi	t1,sp,40
    80004cec:	8e2a                	mv	t3,a0
    80004cee:	f42e                	sd	a1,40(sp)
    80004cf0:	f832                	sd	a2,48(sp)
    80004cf2:	fc36                	sd	a3,56(sp)
    80004cf4:	00000517          	auipc	a0,0x0
    80004cf8:	e7450513          	addi	a0,a0,-396 # 80004b68 <putchar>
    80004cfc:	869a                	mv	a3,t1
    80004cfe:	8672                	mv	a2,t3
    80004d00:	4581                	li	a1,0
    80004d02:	ec06                	sd	ra,24(sp)
    80004d04:	e0ba                	sd	a4,64(sp)
    80004d06:	e4be                	sd	a5,72(sp)
    80004d08:	e8c2                	sd	a6,80(sp)
    80004d0a:	ecc6                	sd	a7,88(sp)
    80004d0c:	e41a                	sd	t1,8(sp)
    80004d0e:	b83ff0ef          	jal	ra,80004890 <vprintfmt>
    80004d12:	60e2                	ld	ra,24(sp)
    80004d14:	4501                	li	a0,0
    80004d16:	6125                	addi	sp,sp,96
    80004d18:	8082                	ret

0000000080004d1a <sprintf>:
    80004d1a:	711d                	addi	sp,sp,-96
    80004d1c:	03010313          	addi	t1,sp,48
    80004d20:	f022                	sd	s0,32(sp)
    80004d22:	e42a                	sd	a0,8(sp)
    80004d24:	f832                	sd	a2,48(sp)
    80004d26:	fc36                	sd	a3,56(sp)
    80004d28:	842a                	mv	s0,a0
    80004d2a:	862e                	mv	a2,a1
    80004d2c:	00000517          	auipc	a0,0x0
    80004d30:	e2e50513          	addi	a0,a0,-466 # 80004b5a <sprintf_putch.0>
    80004d34:	002c                	addi	a1,sp,8
    80004d36:	869a                	mv	a3,t1
    80004d38:	f406                	sd	ra,40(sp)
    80004d3a:	e4be                	sd	a5,72(sp)
    80004d3c:	e0ba                	sd	a4,64(sp)
    80004d3e:	e8c2                	sd	a6,80(sp)
    80004d40:	ecc6                	sd	a7,88(sp)
    80004d42:	ec1a                	sd	t1,24(sp)
    80004d44:	b4dff0ef          	jal	ra,80004890 <vprintfmt>
    80004d48:	67a2                	ld	a5,8(sp)
    80004d4a:	00078023          	sb	zero,0(a5)
    80004d4e:	6522                	ld	a0,8(sp)
    80004d50:	70a2                	ld	ra,40(sp)
    80004d52:	9d01                	subw	a0,a0,s0
    80004d54:	7402                	ld	s0,32(sp)
    80004d56:	6125                	addi	sp,sp,96
    80004d58:	8082                	ret

0000000080004d5a <memcpy>:
    80004d5a:	00b567b3          	or	a5,a0,a1
    80004d5e:	8fd1                	or	a5,a5,a2
    80004d60:	8b9d                	andi	a5,a5,7
    80004d62:	00c506b3          	add	a3,a0,a2
    80004d66:	cf91                	beqz	a5,80004d82 <memcpy+0x28>
    80004d68:	962e                	add	a2,a2,a1
    80004d6a:	87aa                	mv	a5,a0
    80004d6c:	02d57663          	bgeu	a0,a3,80004d98 <memcpy+0x3e>
    80004d70:	0005c703          	lbu	a4,0(a1)
    80004d74:	0585                	addi	a1,a1,1
    80004d76:	0785                	addi	a5,a5,1
    80004d78:	fee78fa3          	sb	a4,-1(a5)
    80004d7c:	feb61ae3          	bne	a2,a1,80004d70 <memcpy+0x16>
    80004d80:	8082                	ret
    80004d82:	fed57fe3          	bgeu	a0,a3,80004d80 <memcpy+0x26>
    80004d86:	87aa                	mv	a5,a0
    80004d88:	6198                	ld	a4,0(a1)
    80004d8a:	07a1                	addi	a5,a5,8
    80004d8c:	05a1                	addi	a1,a1,8
    80004d8e:	fee7bc23          	sd	a4,-8(a5)
    80004d92:	fed7ebe3          	bltu	a5,a3,80004d88 <memcpy+0x2e>
    80004d96:	8082                	ret
    80004d98:	8082                	ret

0000000080004d9a <memset>:
    80004d9a:	00c567b3          	or	a5,a0,a2
    80004d9e:	8b9d                	andi	a5,a5,7
    80004da0:	962a                	add	a2,a2,a0
    80004da2:	0ff5f593          	zext.b	a1,a1
    80004da6:	cb91                	beqz	a5,80004dba <memset+0x20>
    80004da8:	87aa                	mv	a5,a0
    80004daa:	02c57a63          	bgeu	a0,a2,80004dde <memset+0x44>
    80004dae:	0785                	addi	a5,a5,1
    80004db0:	feb78fa3          	sb	a1,-1(a5)
    80004db4:	fec79de3          	bne	a5,a2,80004dae <memset+0x14>
    80004db8:	8082                	ret
    80004dba:	00859793          	slli	a5,a1,0x8
    80004dbe:	8fcd                	or	a5,a5,a1
    80004dc0:	01079713          	slli	a4,a5,0x10
    80004dc4:	8fd9                	or	a5,a5,a4
    80004dc6:	02079713          	slli	a4,a5,0x20
    80004dca:	8fd9                	or	a5,a5,a4
    80004dcc:	fec576e3          	bgeu	a0,a2,80004db8 <memset+0x1e>
    80004dd0:	872a                	mv	a4,a0
    80004dd2:	0721                	addi	a4,a4,8
    80004dd4:	fef73c23          	sd	a5,-8(a4)
    80004dd8:	fec76de3          	bltu	a4,a2,80004dd2 <memset+0x38>
    80004ddc:	8082                	ret
    80004dde:	8082                	ret

0000000080004de0 <_init>:
    80004de0:	7171                	addi	sp,sp,-176
    80004de2:	a7818793          	addi	a5,gp,-1416 # 80005200 <_end>
    80004de6:	e152                	sd	s4,128(sp)
    80004de8:	a7818a13          	addi	s4,gp,-1416 # 80005200 <_end>
    80004dec:	e54e                	sd	s3,136(sp)
    80004dee:	40fa09b3          	sub	s3,s4,a5
    80004df2:	ed26                	sd	s1,152(sp)
    80004df4:	e94a                	sd	s2,144(sp)
    80004df6:	84aa                	mv	s1,a0
    80004df8:	892e                	mv	s2,a1
    80004dfa:	8512                	mv	a0,tp
    80004dfc:	85be                	mv	a1,a5
    80004dfe:	864e                	mv	a2,s3
    80004e00:	f506                	sd	ra,168(sp)
    80004e02:	f122                	sd	s0,160(sp)
    80004e04:	fcd6                	sd	s5,120(sp)
    80004e06:	8a92                	mv	s5,tp
    80004e08:	f53ff0ef          	jal	ra,80004d5a <memcpy>
    80004e0c:	afc18613          	addi	a2,gp,-1284 # 80005284 <_tbss_end>
    80004e10:	41460633          	sub	a2,a2,s4
    80004e14:	4581                	li	a1,0
    80004e16:	013a8533          	add	a0,s5,s3
    80004e1a:	f81ff0ef          	jal	ra,80004d9a <memset>
    80004e1e:	85ca                	mv	a1,s2
    80004e20:	8526                	mv	a0,s1
    80004e22:	eb4ff0ef          	jal	ra,800044d6 <thread_entry>
    80004e26:	4581                	li	a1,0
    80004e28:	4501                	li	a0,0
    80004e2a:	142000ef          	jal	ra,80004f6c <main>
    80004e2e:	a5818913          	addi	s2,gp,-1448 # 800051e0 <counters>
    80004e32:	00093683          	ld	a3,0(s2)
    80004e36:	03f10413          	addi	s0,sp,63
    80004e3a:	fc047413          	andi	s0,s0,-64
    80004e3e:	84aa                	mv	s1,a0
    80004e40:	ea85                	bnez	a3,80004e70 <_init+0x90>
    80004e42:	00893683          	ld	a3,8(s2)
    80004e46:	e681                	bnez	a3,80004e4e <_init+0x6e>
    80004e48:	8526                	mv	a0,s1
    80004e4a:	dc7ff0ef          	jal	ra,80004c10 <tohost_exit>
    80004e4e:	89a2                	mv	s3,s0
    80004e50:	01893603          	ld	a2,24(s2)
    80004e54:	854e                	mv	a0,s3
    80004e56:	00000597          	auipc	a1,0x0
    80004e5a:	21a58593          	addi	a1,a1,538 # 80005070 <main+0x104>
    80004e5e:	ebdff0ef          	jal	ra,80004d1a <sprintf>
    80004e62:	99aa                	add	s3,s3,a0
    80004e64:	ff3402e3          	beq	s0,s3,80004e48 <_init+0x68>
    80004e68:	8522                	mv	a0,s0
    80004e6a:	ddfff0ef          	jal	ra,80004c48 <printstr>
    80004e6e:	bfe9                	j	80004e48 <_init+0x68>
    80004e70:	01093603          	ld	a2,16(s2)
    80004e74:	00000597          	auipc	a1,0x0
    80004e78:	1fc58593          	addi	a1,a1,508 # 80005070 <main+0x104>
    80004e7c:	8522                	mv	a0,s0
    80004e7e:	e9dff0ef          	jal	ra,80004d1a <sprintf>
    80004e82:	00893683          	ld	a3,8(s2)
    80004e86:	00a409b3          	add	s3,s0,a0
    80004e8a:	dee9                	beqz	a3,80004e64 <_init+0x84>
    80004e8c:	b7d1                	j	80004e50 <_init+0x70>

0000000080004e8e <strlen>:
    80004e8e:	00054783          	lbu	a5,0(a0)
    80004e92:	cb89                	beqz	a5,80004ea4 <strlen+0x16>
    80004e94:	87aa                	mv	a5,a0
    80004e96:	0017c703          	lbu	a4,1(a5)
    80004e9a:	0785                	addi	a5,a5,1
    80004e9c:	ff6d                	bnez	a4,80004e96 <strlen+0x8>
    80004e9e:	40a78533          	sub	a0,a5,a0
    80004ea2:	8082                	ret
    80004ea4:	4501                	li	a0,0
    80004ea6:	8082                	ret

0000000080004ea8 <strnlen>:
    80004ea8:	00b506b3          	add	a3,a0,a1
    80004eac:	87aa                	mv	a5,a0
    80004eae:	e589                	bnez	a1,80004eb8 <strnlen+0x10>
    80004eb0:	a829                	j	80004eca <strnlen+0x22>
    80004eb2:	0785                	addi	a5,a5,1
    80004eb4:	00f68863          	beq	a3,a5,80004ec4 <strnlen+0x1c>
    80004eb8:	0007c703          	lbu	a4,0(a5)
    80004ebc:	fb7d                	bnez	a4,80004eb2 <strnlen+0xa>
    80004ebe:	40a78533          	sub	a0,a5,a0
    80004ec2:	8082                	ret
    80004ec4:	40a68533          	sub	a0,a3,a0
    80004ec8:	8082                	ret
    80004eca:	4501                	li	a0,0
    80004ecc:	8082                	ret

0000000080004ece <strcmp>:
    80004ece:	00054783          	lbu	a5,0(a0)
    80004ed2:	0585                	addi	a1,a1,1
    80004ed4:	0505                	addi	a0,a0,1
    80004ed6:	fff5c703          	lbu	a4,-1(a1)
    80004eda:	c799                	beqz	a5,80004ee8 <strcmp+0x1a>
    80004edc:	fee789e3          	beq	a5,a4,80004ece <strcmp>
    80004ee0:	0007851b          	sext.w	a0,a5
    80004ee4:	9d19                	subw	a0,a0,a4
    80004ee6:	8082                	ret
    80004ee8:	4501                	li	a0,0
    80004eea:	bfed                	j	80004ee4 <strcmp+0x16>

0000000080004eec <strcpy>:
    80004eec:	87aa                	mv	a5,a0
    80004eee:	0005c703          	lbu	a4,0(a1)
    80004ef2:	0785                	addi	a5,a5,1
    80004ef4:	0585                	addi	a1,a1,1
    80004ef6:	fee78fa3          	sb	a4,-1(a5)
    80004efa:	fb75                	bnez	a4,80004eee <strcpy+0x2>
    80004efc:	8082                	ret

0000000080004efe <atol>:
    80004efe:	00054703          	lbu	a4,0(a0)
    80004f02:	02000693          	li	a3,32
    80004f06:	87aa                	mv	a5,a0
    80004f08:	00d71763          	bne	a4,a3,80004f16 <atol+0x18>
    80004f0c:	0017c703          	lbu	a4,1(a5)
    80004f10:	0785                	addi	a5,a5,1
    80004f12:	fed70de3          	beq	a4,a3,80004f0c <atol+0xe>
    80004f16:	02d00693          	li	a3,45
    80004f1a:	04d70263          	beq	a4,a3,80004f5e <atol+0x60>
    80004f1e:	02b00693          	li	a3,43
    80004f22:	02d70763          	beq	a4,a3,80004f50 <atol+0x52>
    80004f26:	0007c683          	lbu	a3,0(a5)
    80004f2a:	4581                	li	a1,0
    80004f2c:	c69d                	beqz	a3,80004f5a <atol+0x5c>
    80004f2e:	4501                	li	a0,0
    80004f30:	0785                	addi	a5,a5,1
    80004f32:	00251713          	slli	a4,a0,0x2
    80004f36:	fd06861b          	addiw	a2,a3,-48
    80004f3a:	0007c683          	lbu	a3,0(a5)
    80004f3e:	972a                	add	a4,a4,a0
    80004f40:	0706                	slli	a4,a4,0x1
    80004f42:	00e60533          	add	a0,a2,a4
    80004f46:	f6ed                	bnez	a3,80004f30 <atol+0x32>
    80004f48:	c991                	beqz	a1,80004f5c <atol+0x5e>
    80004f4a:	40a00533          	neg	a0,a0
    80004f4e:	8082                	ret
    80004f50:	0017c683          	lbu	a3,1(a5)
    80004f54:	4581                	li	a1,0
    80004f56:	0785                	addi	a5,a5,1
    80004f58:	faf9                	bnez	a3,80004f2e <atol+0x30>
    80004f5a:	4501                	li	a0,0
    80004f5c:	8082                	ret
    80004f5e:	0017c683          	lbu	a3,1(a5)
    80004f62:	4585                	li	a1,1
    80004f64:	0785                	addi	a5,a5,1
    80004f66:	f6e1                	bnez	a3,80004f2e <atol+0x30>
    80004f68:	4501                	li	a0,0
    80004f6a:	bfcd                	j	80004f5c <atol+0x5e>

Disassembly of section .text.startup:

0000000080004f6c <main>:
    80004f6c:	1141                	addi	sp,sp,-16
    80004f6e:	00000517          	auipc	a0,0x0
    80004f72:	0ea50513          	addi	a0,a0,234 # 80005058 <main+0xec>
    80004f76:	e406                	sd	ra,8(sp)
    80004f78:	cd1ff0ef          	jal	ra,80004c48 <printstr>
    80004f7c:	60a2                	ld	ra,8(sp)
    80004f7e:	557d                	li	a0,-1
    80004f80:	0141                	addi	sp,sp,16
    80004f82:	8082                	ret
